

Microchip MPLAB XC8 Assembler V2.32 build 20210201212658 
                                                                                               Sun Feb 06 10:15:01 2022

Microchip MPLAB XC8 C Compiler v2.32 (Free license) build 20210201212658 Og9 
     1                           	processor	18F4550
     2                           	fnconf	rparam,??,?,0
     3                           	pagewidth 120
     4                           	opt	flic
     5                           	psect	idataCOMRAM,global,class=CODE,delta=1,noexec
     6                           	psect	smallconst,global,reloc=2,class=SMALLCONST,delta=1,noexec
     7                           	psect	cinit,global,reloc=2,class=CODE,delta=1
     8                           	psect	bssCOMRAM,global,class=COMRAM,space=1,delta=1,lowdata,noexec
     9                           	psect	dataCOMRAM,global,class=COMRAM,space=1,delta=1,lowdata,noexec
    10                           	psect	bssBANK0,global,class=BANK0,space=1,delta=1,lowdata,noexec
    11                           	psect	cstackBANK0,global,class=BANK0,space=1,delta=1,lowdata,noexec
    12                           	psect	cstackCOMRAM,global,class=COMRAM,space=1,delta=1,lowdata,noexec
    13                           	psect	text0,global,reloc=2,class=CODE,delta=1
    14                           	psect	text1,global,reloc=2,class=CODE,delta=1,group=1
    15                           	psect	text2,global,reloc=2,class=CODE,delta=1,group=1
    16                           	psect	text3,global,reloc=2,class=CODE,delta=1,group=1
    17                           	psect	text4,global,reloc=2,class=CODE,delta=1
    18                           	psect	text5,global,reloc=2,class=CODE,delta=1
    19                           	psect	text6,global,reloc=2,class=CODE,delta=1
    20                           	psect	text7,global,reloc=2,class=CODE,delta=1
    21                           	psect	text8,global,reloc=2,class=CODE,delta=1,group=1
    22                           	psect	text9,global,reloc=2,class=CODE,delta=1,group=1
    23                           	psect	text10,global,reloc=2,class=CODE,delta=1,group=1
    24                           	psect	text11,global,reloc=2,class=CODE,delta=1
    25                           	psect	text12,global,reloc=2,class=CODE,delta=1
    26                           	psect	text13,global,reloc=2,class=CODE,delta=1
    27                           	psect	text14,global,reloc=2,class=CODE,delta=1
    28                           	psect	text15,global,reloc=2,class=CODE,delta=1
    29                           	psect	text16,global,reloc=2,class=CODE,delta=1
    30                           	psect	text17,global,reloc=2,class=CODE,delta=1
    31                           	psect	text18,global,reloc=2,class=CODE,delta=1
    32                           	psect	intcode,global,reloc=2,class=CODE,delta=1
    33                           	psect	intcode_body,global,reloc=2,class=CODE,delta=1
    34                           	psect	text20,global,reloc=2,class=CODE,delta=1
    35                           	psect	text21,global,reloc=2,class=CODE,delta=1
    36                           	psect	text22,global,reloc=2,class=CODE,delta=1
    37                           	psect	text23,global,reloc=2,class=CODE,delta=1
    38                           	psect	text24,global,reloc=2,class=CODE,delta=1
    39                           	psect	text25,global,reloc=2,class=CODE,delta=1
    40                           	psect	text26,global,reloc=2,class=CODE,delta=1
    41                           	psect	text27,global,reloc=2,class=CODE,delta=1
    42                           	psect	text28,global,reloc=2,class=CODE,delta=1
    43                           	psect	text29,global,reloc=2,class=CODE,delta=1,group=1
    44                           	psect	text30,global,reloc=2,class=CODE,delta=1,group=1
    45                           	psect	text31,global,reloc=2,class=CODE,delta=1,group=1
    46                           	psect	text32,global,reloc=2,class=CODE,delta=1
    47                           	psect	intsave_regs,global,class=BIGRAM,space=1,delta=1,noexec
    48                           	psect	rparam,global,class=COMRAM,space=1,delta=1,noexec
    49                           	psect	temp,global,ovrld,common,class=COMRAM,space=1,delta=1
    50                           	psect	idloc,global,abs,ovrld,class=IDLOC,space=5,delta=1,noexec
    51                           	psect	config,global,abs,ovrld,class=CONFIG,space=4,delta=1,noexec
    52  0000                     
    53                           ; Version 2.32
    54                           ; Generated 02/02/2021 GMT
    55                           ; 
    56                           ; Copyright © 2021, Microchip Technology Inc. and its subsidiaries ("Microchip")
    57                           ; All rights reserved.
    58                           ; 
    59                           ; This software is developed by Microchip Technology Inc. and its subsidiaries ("Microch
      +                          ip").
    60                           ; 
    61                           ; Redistribution and use in source and binary forms, with or without modification, are
    62                           ; permitted provided that the following conditions are met:
    63                           ; 
    64                           ;     1. Redistributions of source code must retain the above copyright notice, this lis
      +                          t of
    65                           ;        conditions and the following disclaimer.
    66                           ; 
    67                           ;     2. Redistributions in binary form must reproduce the above copyright notice, this 
      +                          list
    68                           ;        of conditions and the following disclaimer in the documentation and/or other
    69                           ;        materials provided with the distribution. Publication is not required when
    70                           ;        this file is used in an embedded application.
    71                           ; 
    72                           ;     3. Microchip's name may not be used to endorse or promote products derived from th
      +                          is
    73                           ;        software without specific prior written permission.
    74                           ; 
    75                           ; THIS SOFTWARE IS PROVIDED BY MICROCHIP "AS IS" AND ANY EXPRESS OR IMPLIED WARRANTIES,
    76                           ; INCLUDING, BUT NOT LIMITED TO, THE IMPLIED WARRANTIES OF MERCHANTABILITY AND FITNESS F
      +                          OR
    77                           ; PURPOSE ARE DISCLAIMED.  IN NO EVENT SHALL MICROCHIP BE LIABLE FOR ANY DIRECT, INDIREC
      +                          T,
    78                           ; INCIDENTAL, SPECIAL, EXEMPLARY, OR CONSEQUENTIAL DAMAGES (INCLUDING BUT NOT LIMITED TO
    79                           ; PROCUREMENT OF SUBSTITUTE GOODS OR SERVICES; LOSS OF USE, DATA OR PROFITS; OR BUSINESS
    80                           ; INTERRUPTION) HOWSOEVER CAUSED AND ON ANY THEORY OF LIABILITY, WHETHER IN CONTRACT, ST
      +                          RICT
    81                           ; LIABILITY, OR TORT (INCLUDING NEGLIGENCE OR OTHERWISE) ARISING IN ANY WAY OUT OF THE U
      +                          SE OF
    82                           ; THIS SOFTWARE, EVEN IF ADVISED OF THE POSSIBILITY OF SUCH DAMAGE.
    83                           ; 
    84                           ; 
    85                           ; Code-generator required, PIC18F4550 Definitions
    86                           ; 
    87                           ; SFR Addresses
    88  0000                     
    89                           	psect	idataCOMRAM
    90  001A20                     __pidataCOMRAM:
    91                           	callstack 0
    92                           
    93                           ;initializer for _interfaz
    94  001A20  08                 	db	8
    95  0000                     _ADRES	set	4035
    96  0000                     _TMR0	set	4054
    97  0000                     _TXREG	set	4013
    98  0000                     _RCREG	set	4014
    99  0000                     _T0CON	set	4053
   100  0000                     _TRISD	set	3989
   101  0000                     _LATB	set	3978
   102  0000                     _TRISB	set	3987
   103  0000                     _CCPR1L	set	4030
   104  0000                     _TMR2	set	4044
   105  0000                     _CCP1CON	set	4029
   106  0000                     _T2CON	set	4042
   107  0000                     _SPBRG	set	4015
   108  0000                     _BAUDCON	set	4024
   109  0000                     _RCSTA	set	4011
   110  0000                     _TXSTA	set	4012
   111  0000                     _ADCON2	set	4032
   112  0000                     _ADCON1	set	4033
   113  0000                     _ADCON0	set	4034
   114  0000                     _LATD	set	3980
   115  0000                     _PR2	set	4043
   116  0000                     _LATD1	set	31841
   117  0000                     _LATD0	set	31840
   118  0000                     _GO	set	32273
   119  0000                     _TRMT	set	32097
   120  0000                     _RB6	set	31758
   121  0000                     _RB7	set	31759
   122  0000                     _RBIF	set	32656
   123  0000                     _PEIE	set	32662
   124  0000                     _GIE	set	32663
   125  0000                     _RCIF	set	31989
   126  0000                     _RCIE	set	31981
   127  0000                     _TMR0IE	set	32661
   128  0000                     _TMR0IF	set	32658
   129  0000                     _TRISC2	set	31906
   130  0000                     _LATA3	set	31819
   131  0000                     _TRISA3	set	31891
   132  0000                     _TRISE1	set	31921
   133  0000                     _TRISE0	set	31920
   134  0000                     _TMR2ON	set	32338
   135  0000                     _IRCF0	set	32412
   136  0000                     _IRCF1	set	32413
   137  0000                     _LATD3	set	31843
   138  0000                     _LATD2	set	31842
   139                           
   140                           	psect	smallconst
   141  000800                     __psmallconst:
   142                           	callstack 0
   143  000800  00                 	db	0
   144  000801                     STR_2:
   145  000801  50                 	db	80	;'P'
   146  000802  72                 	db	114	;'r'
   147  000803  6F                 	db	111	;'o'
   148  000804  79                 	db	121	;'y'
   149  000805  65                 	db	101	;'e'
   150  000806  63                 	db	99	;'c'
   151  000807  74                 	db	116	;'t'
   152  000808  6F                 	db	111	;'o'
   153  000809  20                 	db	32
   154  00080A  43                 	db	67	;'C'
   155  00080B  61                 	db	97	;'a'
   156  00080C  72                 	db	114	;'r'
   157  00080D  72                 	db	114	;'r'
   158  00080E  6F                 	db	111	;'o'
   159  00080F  00                 	db	0
   160  000810                     STR_1:
   161  000810  4D                 	db	77	;'M'
   162  000811  69                 	db	105	;'i'
   163  000812  63                 	db	99	;'c'
   164  000813  72                 	db	114	;'r'
   165  000814  6F                 	db	111	;'o'
   166  000815  73                 	db	115	;'s'
   167  000816  20                 	db	32
   168  000817  32                 	db	50	;'2'
   169  000818  30                 	db	48	;'0'
   170  000819  32                 	db	50	;'2'
   171  00081A  31                 	db	49	;'1'
   172  00081B  2D                 	db	45
   173  00081C  32                 	db	50	;'2'
   174  00081D  00                 	db	0
   175  00081E                     STR_4:
   176  00081E  53                 	db	83	;'S'
   177  00081F  65                 	db	101	;'e'
   178  000820  20                 	db	32
   179  000821  65                 	db	101	;'e'
   180  000822  6E                 	db	110	;'n'
   181  000823  63                 	db	99	;'c'
   182  000824  69                 	db	105	;'i'
   183  000825  65                 	db	101	;'e'
   184  000826  6E                 	db	110	;'n'
   185  000827  64                 	db	100	;'d'
   186  000828  65                 	db	101	;'e'
   187  000829  00                 	db	0
   188  00082A                     STR_3:
   189  00082A  53                 	db	83	;'S'
   190  00082B  65                 	db	101	;'e'
   191  00082C  20                 	db	32
   192  00082D  64                 	db	100	;'d'
   193  00082E  65                 	db	101	;'e'
   194  00082F  74                 	db	116	;'t'
   195  000830  69                 	db	105	;'i'
   196  000831  65                 	db	101	;'e'
   197  000832  6E                 	db	110	;'n'
   198  000833  65                 	db	101	;'e'
   199  000834  00                 	db	0
   200  000835  00                 	db	0	; dummy byte at the end
   201  0000                     
   202                           ; #config settings
   203                           
   204                           	psect	cinit
   205  001864                     __pcinit:
   206                           	callstack 0
   207  001864                     start_initialization:
   208                           	callstack 0
   209  001864                     __initialization:
   210                           	callstack 0
   211                           
   212                           ; Initialize objects allocated to COMRAM (1 bytes)
   213                           ; load TBLPTR registers with __pidataCOMRAM
   214  001864  0E20               	movlw	low __pidataCOMRAM
   215  001866  6EF6               	movwf	tblptrl,c
   216  001868  0E1A               	movlw	high __pidataCOMRAM
   217  00186A  6EF7               	movwf	tblptrh,c
   218  00186C  0E00               	movlw	low (__pidataCOMRAM shr (0+16))
   219  00186E  6EF8               	movwf	tblptru,c
   220  001870  0009               	tblrd		*+	;fetch initializer
   221  001872  CFF5 F033          	movff	tablat,__pdataCOMRAM
   222                           
   223                           ; Clear objects allocated to BANK0 (6 bytes)
   224  001876  0100               	movlb	0
   225  001878  6B87               	clrf	(__pbssBANK0+5)& (0+255),b
   226  00187A  6B86               	clrf	(__pbssBANK0+4)& (0+255),b
   227  00187C  6B85               	clrf	(__pbssBANK0+3)& (0+255),b
   228  00187E  6B84               	clrf	(__pbssBANK0+2)& (0+255),b
   229  001880  6B83               	clrf	(__pbssBANK0+1)& (0+255),b
   230  001882  6B82               	clrf	__pbssBANK0& (0+255),b
   231                           
   232                           ; Clear objects allocated to COMRAM (1 bytes)
   233  001884  6A32               	clrf	__pbssCOMRAM& (0+255),c
   234  001886                     end_of_initialization:
   235                           	callstack 0
   236  001886                     __end_of__initialization:
   237                           	callstack 0
   238  001886  9034               	bcf	int$flags,0,c	;clear compiler interrupt flag (level 1)
   239  001888  9234               	bcf	int$flags,1,c	;clear compiler interrupt flag (level 2)
   240  00188A  0E00               	movlw	low (__Lmediumconst shr (0+16))
   241  00188C  6EF8               	movwf	tblptru,c
   242  00188E  0100               	movlb	0
   243  001890  EF63  F006         	goto	_main	;jump to C main() function
   244                           
   245                           	psect	bssCOMRAM
   246  000032                     __pbssCOMRAM:
   247                           	callstack 0
   248  000032                     _Caso:
   249                           	callstack 0
   250  000032                     	ds	1
   251                           
   252                           	psect	dataCOMRAM
   253  000033                     __pdataCOMRAM:
   254                           	callstack 0
   255  000033                     _interfaz:
   256                           	callstack 0
   257  000033                     	ds	1
   258                           
   259                           	psect	bssBANK0
   260  000082                     __pbssBANK0:
   261                           	callstack 0
   262  000082                     _VanY:
   263                           	callstack 0
   264  000082                     	ds	3
   265  000085                     _VanX:
   266                           	callstack 0
   267  000085                     	ds	3
   268                           
   269                           	psect	cstackBANK0
   270  000060                     __pcstackBANK0:
   271                           	callstack 0
   272  000060                     ??_RetardoLCD:
   273  000060                     ?_Conversion:
   274                           	callstack 0
   275  000060                     ?___ftpack:
   276                           	callstack 0
   277  000060                     ConfiguraLCD@a:
   278                           	callstack 0
   279  000060                     Transmitir@BufferT:
   280                           	callstack 0
   281  000060                     ___ftpack@arg:
   282                           	callstack 0
   283  000060                     ___ftge@ff1:
   284                           	callstack 0
   285                           
   286                           ; 3 bytes @ 0x0
   287  000060                     	ds	1
   288  000061                     RetardoLCD@a:
   289                           	callstack 0
   290                           
   291                           ; 1 bytes @ 0x1
   292  000061                     	ds	1
   293  000062                     ??_Conversion:
   294  000062                     ??_EnviaDato:
   295                           
   296                           ; 1 bytes @ 0x2
   297  000062                     	ds	1
   298  000063                     EnviaDato@a:
   299                           	callstack 0
   300  000063                     Conversion@canal:
   301                           	callstack 0
   302  000063                     ___ftpack@exp:
   303                           	callstack 0
   304  000063                     ___ftge@ff2:
   305                           	callstack 0
   306                           
   307                           ; 3 bytes @ 0x3
   308  000063                     	ds	1
   309  000064                     EscribeLCD_c@a:
   310                           	callstack 0
   311  000064                     DireccionaLCD@a:
   312                           	callstack 0
   313  000064                     ___ftpack@sign:
   314                           	callstack 0
   315                           
   316                           ; 1 bytes @ 0x4
   317  000064                     	ds	1
   318  000065                     ??___ftpack:
   319  000065                     MensajeLCD_Var@a:
   320                           	callstack 0
   321                           
   322                           ; 1 bytes @ 0x5
   323  000065                     	ds	1
   324  000066                     ??___ftge:
   325                           
   326                           ; 1 bytes @ 0x6
   327  000066                     	ds	2
   328  000068                     ?___ftadd:
   329                           	callstack 0
   330  000068                     ?___ftdiv:
   331                           	callstack 0
   332  000068                     ?___lwtoft:
   333                           	callstack 0
   334  000068                     ___lwtoft@c:
   335                           	callstack 0
   336  000068                     ___ftadd@f1:
   337                           	callstack 0
   338  000068                     ___ftdiv@f1:
   339                           	callstack 0
   340                           
   341                           ; 3 bytes @ 0x8
   342  000068                     	ds	3
   343  00006B                     ___ftadd@f2:
   344                           	callstack 0
   345  00006B                     ___ftdiv@f2:
   346                           	callstack 0
   347                           
   348                           ; 3 bytes @ 0xB
   349  00006B                     	ds	3
   350  00006E                     ??___ftadd:
   351  00006E                     ??___ftdiv:
   352                           
   353                           ; 1 bytes @ 0xE
   354  00006E                     	ds	3
   355  000071                     ___ftadd@sign:
   356                           	callstack 0
   357  000071                     ___ftdiv@cntr:
   358                           	callstack 0
   359                           
   360                           ; 1 bytes @ 0x11
   361  000071                     	ds	1
   362  000072                     ___ftadd@exp2:
   363                           	callstack 0
   364  000072                     ___ftdiv@f3:
   365                           	callstack 0
   366                           
   367                           ; 3 bytes @ 0x12
   368  000072                     	ds	1
   369  000073                     ___ftadd@exp1:
   370                           	callstack 0
   371                           
   372                           ; 1 bytes @ 0x13
   373  000073                     	ds	1
   374  000074                     ?___ftsub:
   375                           	callstack 0
   376  000074                     ___ftsub@f1:
   377                           	callstack 0
   378                           
   379                           ; 3 bytes @ 0x14
   380  000074                     	ds	1
   381  000075                     ___ftdiv@exp:
   382                           	callstack 0
   383                           
   384                           ; 1 bytes @ 0x15
   385  000075                     	ds	1
   386  000076                     ___ftdiv@sign:
   387                           	callstack 0
   388                           
   389                           ; 1 bytes @ 0x16
   390  000076                     	ds	1
   391  000077                     Duty@V:
   392                           	callstack 0
   393  000077                     ___ftsub@f2:
   394                           	callstack 0
   395                           
   396                           ; 3 bytes @ 0x17
   397  000077                     	ds	3
   398  00007A                     Duty@X:
   399                           	callstack 0
   400                           
   401                           ; 3 bytes @ 0x1A
   402  00007A                     	ds	3
   403  00007D                     ??_main:
   404                           
   405                           ; 1 bytes @ 0x1D
   406  00007D                     	ds	2
   407  00007F                     _main$845:
   408                           	callstack 0
   409                           
   410                           ; 3 bytes @ 0x1F
   411  00007F                     	ds	3
   412                           
   413                           	psect	cstackCOMRAM
   414  000001                     __pcstackCOMRAM:
   415                           	callstack 0
   416  000001                     ??i2_RetardoLCD:
   417  000001                     ?i2___ftpack:
   418                           	callstack 0
   419  000001                     i2Transmitir@BufferT:
   420                           	callstack 0
   421  000001                     i2___ftpack@arg:
   422                           	callstack 0
   423                           
   424                           ; 3 bytes @ 0x0
   425  000001                     	ds	1
   426  000002                     i2RetardoLCD@a:
   427                           	callstack 0
   428                           
   429                           ; 1 bytes @ 0x1
   430  000002                     	ds	1
   431  000003                     ??i2_EnviaDato:
   432                           
   433                           ; 1 bytes @ 0x2
   434  000003                     	ds	1
   435  000004                     i2EnviaDato@a:
   436                           	callstack 0
   437  000004                     i2___ftpack@exp:
   438                           	callstack 0
   439                           
   440                           ; 1 bytes @ 0x3
   441  000004                     	ds	1
   442  000005                     i2EscribeLCD_c@a:
   443                           	callstack 0
   444  000005                     i2___ftpack@sign:
   445                           	callstack 0
   446                           
   447                           ; 1 bytes @ 0x4
   448  000005                     	ds	1
   449  000006                     ??i2___ftpack:
   450  000006                     i2MensajeLCD_Var@a:
   451                           	callstack 0
   452                           
   453                           ; 1 bytes @ 0x5
   454  000006                     	ds	1
   455  000007                     
   456                           ; 1 bytes @ 0x6
   457  000007                     	ds	2
   458  000009                     ?___lbtoft:
   459                           	callstack 0
   460                           
   461                           ; 3 bytes @ 0x8
   462  000009                     	ds	3
   463  00000C                     ___lbtoft@c:
   464                           	callstack 0
   465                           
   466                           ; 1 bytes @ 0xB
   467  00000C                     	ds	1
   468  00000D                     ?___ftmul:
   469                           	callstack 0
   470  00000D                     ___ftmul@f1:
   471                           	callstack 0
   472                           
   473                           ; 3 bytes @ 0xC
   474  00000D                     	ds	3
   475  000010                     ___ftmul@f2:
   476                           	callstack 0
   477                           
   478                           ; 3 bytes @ 0xF
   479  000010                     	ds	3
   480  000013                     ??___ftmul:
   481                           
   482                           ; 1 bytes @ 0x12
   483  000013                     	ds	3
   484  000016                     ___ftmul@exp:
   485                           	callstack 0
   486                           
   487                           ; 1 bytes @ 0x15
   488  000016                     	ds	1
   489  000017                     ___ftmul@f3_as_product:
   490                           	callstack 0
   491                           
   492                           ; 3 bytes @ 0x16
   493  000017                     	ds	3
   494  00001A                     ___ftmul@cntr:
   495                           	callstack 0
   496                           
   497                           ; 1 bytes @ 0x19
   498  00001A                     	ds	1
   499  00001B                     ___ftmul@sign:
   500                           	callstack 0
   501                           
   502                           ; 1 bytes @ 0x1A
   503  00001B                     	ds	1
   504  00001C                     ?___fttol:
   505                           	callstack 0
   506  00001C                     ___fttol@f1:
   507                           	callstack 0
   508                           
   509                           ; 3 bytes @ 0x1B
   510  00001C                     	ds	4
   511  000020                     ??___fttol:
   512                           
   513                           ; 1 bytes @ 0x1F
   514  000020                     	ds	5
   515  000025                     ___fttol@sign1:
   516                           	callstack 0
   517                           
   518                           ; 1 bytes @ 0x24
   519  000025                     	ds	1
   520  000026                     ___fttol@lval:
   521                           	callstack 0
   522                           
   523                           ; 4 bytes @ 0x25
   524  000026                     	ds	4
   525  00002A                     ___fttol@exp1:
   526                           	callstack 0
   527                           
   528                           ; 1 bytes @ 0x29
   529  00002A                     	ds	1
   530  00002B                     LecturaEntrada@entrada:
   531                           	callstack 0
   532                           
   533                           ; 1 bytes @ 0x2A
   534  00002B                     	ds	1
   535  00002C                     ??_ISR:
   536                           
   537                           ; 1 bytes @ 0x2B
   538  00002C                     	ds	6
   539                           
   540 ;;
   541 ;;Main: autosize = 0, tempsize = 2, incstack = 0, save=0
   542 ;;
   543 ;; *************** function _main *****************
   544 ;; Defined at:
   545 ;;		line 24 in file "ProyectoControl.c"
   546 ;; Parameters:    Size  Location     Type
   547 ;;		None
   548 ;; Auto vars:     Size  Location     Type
   549 ;;		None
   550 ;; Return value:  Size  Location     Type
   551 ;;                  1    wreg      void 
   552 ;; Registers used:
   553 ;;		wreg, status,2, status,0, tblptrl, tblptrh, tblptru, cstack
   554 ;; Tracked objects:
   555 ;;		On entry : 0/0
   556 ;;		On exit  : 0/0
   557 ;;		Unchanged: 0/0
   558 ;; Data sizes:     COMRAM   BANK0   BANK1   BANK2   BANK3   BANK4   BANK5   BANK6   BANK7
   559 ;;      Params:         0       0       0       0       0       0       0       0       0
   560 ;;      Locals:         0       3       0       0       0       0       0       0       0
   561 ;;      Temps:          0       2       0       0       0       0       0       0       0
   562 ;;      Totals:         0       5       0       0       0       0       0       0       0
   563 ;;Total ram usage:        5 bytes
   564 ;; Hardware stack levels required when called: 9
   565 ;; This function calls:
   566 ;;		_BorraLCD
   567 ;;		_ConfiguraLCD
   568 ;;		_Conversion
   569 ;;		_DireccionaLCD
   570 ;;		_Duty
   571 ;;		_InicializaLCD
   572 ;;		_MensajeLCD_Var
   573 ;;		___ftadd
   574 ;;		___ftsub
   575 ;;		___lwtoft
   576 ;; This function is called by:
   577 ;;		Startup code after reset
   578 ;; This function uses a non-reentrant model
   579 ;;
   580                           
   581                           	psect	text0
   582  000CC6                     __ptext0:
   583                           	callstack 0
   584  000CC6                     _main:
   585                           	callstack 22
   586                           
   587                           ;ProyectoControl.c: 25: IRCF1=1;
   588                           
   589                           ;incstack = 0
   590  000CC6  8AD3               	bsf	4051,5,c	;volatile
   591                           
   592                           ;ProyectoControl.c: 26: IRCF0=1;
   593  000CC8  88D3               	bsf	4051,4,c	;volatile
   594                           
   595                           ;ProyectoControl.c: 29: ADCON0=0b00000001;
   596  000CCA  0E01               	movlw	1
   597  000CCC  6EC2               	movwf	194,c	;volatile
   598                           
   599                           ;ProyectoControl.c: 30: ADCON1=12;
   600  000CCE  0E0C               	movlw	12
   601  000CD0  6EC1               	movwf	193,c	;volatile
   602                           
   603                           ;ProyectoControl.c: 31: ADCON2=0b10001000;
   604  000CD2  0E88               	movlw	136
   605  000CD4  6EC0               	movwf	192,c	;volatile
   606                           
   607                           ;ProyectoControl.c: 33: TXSTA=0b00100100;
   608  000CD6  0E24               	movlw	36
   609  000CD8  6EAC               	movwf	172,c	;volatile
   610                           
   611                           ;ProyectoControl.c: 34: RCSTA=0b10010000;
   612  000CDA  0E90               	movlw	144
   613  000CDC  6EAB               	movwf	171,c	;volatile
   614                           
   615                           ;ProyectoControl.c: 35: BAUDCON=0b00001000;
   616  000CDE  0E08               	movlw	8
   617  000CE0  6EB8               	movwf	184,c	;volatile
   618                           
   619                           ;ProyectoControl.c: 36: SPBRG=207;
   620  000CE2  0ECF               	movlw	207
   621  000CE4  6EAF               	movwf	175,c	;volatile
   622                           
   623                           ;ProyectoControl.c: 39: T2CON=0b00000011;
   624  000CE6  0E03               	movlw	3
   625  000CE8  6ECA               	movwf	202,c	;volatile
   626                           
   627                           ;ProyectoControl.c: 40: CCP1CON=0b00001100;
   628  000CEA  0E0C               	movlw	12
   629  000CEC  6EBD               	movwf	189,c	;volatile
   630                           
   631                           ;ProyectoControl.c: 41: TMR2=0;
   632  000CEE  0E00               	movlw	0
   633  000CF0  6ECC               	movwf	204,c	;volatile
   634                           
   635                           ;ProyectoControl.c: 42: TMR2ON=1;
   636  000CF2  84CA               	bsf	4042,2,c	;volatile
   637                           
   638                           ;ProyectoControl.c: 44: PR2=124;
   639  000CF4  0E7C               	movlw	124
   640  000CF6  6ECB               	movwf	203,c	;volatile
   641                           
   642                           ;ProyectoControl.c: 45: CCPR1L=0;
   643  000CF8  0E00               	movlw	0
   644  000CFA  6EBE               	movwf	190,c	;volatile
   645                           
   646                           ;ProyectoControl.c: 47: TRISB=0b11110000;
   647  000CFC  0EF0               	movlw	240
   648  000CFE  6E93               	movwf	147,c	;volatile
   649                           
   650                           ;ProyectoControl.c: 48: LATB=0;
   651  000D00  0E00               	movlw	0
   652  000D02  6E8A               	movwf	138,c	;volatile
   653                           
   654                           ;ProyectoControl.c: 50: TRISD=0;
   655  000D04  0E00               	movlw	0
   656  000D06  6E95               	movwf	149,c	;volatile
   657                           
   658                           ;ProyectoControl.c: 51: LATD=0;
   659  000D08  0E00               	movlw	0
   660  000D0A  6E8C               	movwf	140,c	;volatile
   661                           
   662                           ;ProyectoControl.c: 53: TRISE0=1;
   663  000D0C  8096               	bsf	3990,0,c	;volatile
   664                           
   665                           ;ProyectoControl.c: 54: TRISE1=1;
   666  000D0E  8296               	bsf	3990,1,c	;volatile
   667                           
   668                           ;ProyectoControl.c: 56: TRISA3=0;
   669  000D10  9692               	bcf	3986,3,c	;volatile
   670                           
   671                           ;ProyectoControl.c: 57: LATA3=0;
   672  000D12  9689               	bcf	3977,3,c	;volatile
   673                           
   674                           ;ProyectoControl.c: 59: TRISC2=0;
   675  000D14  9494               	bcf	3988,2,c	;volatile
   676                           
   677                           ;ProyectoControl.c: 62: T0CON=0b10000101;
   678  000D16  0E85               	movlw	133
   679  000D18  6ED5               	movwf	213,c	;volatile
   680                           
   681                           ;ProyectoControl.c: 63: TMR0=34286;
   682  000D1A  0E85               	movlw	133
   683  000D1C  6ED7               	movwf	215,c	;volatile
   684  000D1E  0EEE               	movlw	238
   685  000D20  6ED6               	movwf	214,c	;volatile
   686                           
   687                           ;ProyectoControl.c: 64: TMR0IF=0;
   688  000D22  94F2               	bcf	4082,2,c	;volatile
   689                           
   690                           ;ProyectoControl.c: 65: TMR0IE=1;
   691  000D24  8AF2               	bsf	4082,5,c	;volatile
   692                           
   693                           ;ProyectoControl.c: 67: RCIE=1;
   694  000D26  8A9D               	bsf	3997,5,c	;volatile
   695                           
   696                           ;ProyectoControl.c: 68: RCIF=0;
   697  000D28  9A9E               	bcf	3998,5,c	;volatile
   698                           
   699                           ;ProyectoControl.c: 70: GIE=1;
   700  000D2A  8EF2               	bsf	4082,7,c	;volatile
   701                           
   702                           ;ProyectoControl.c: 71: PEIE=1;
   703  000D2C  8CF2               	bsf	4082,6,c	;volatile
   704                           
   705                           ;ProyectoControl.c: 74: _delay((unsigned long)((500)*(8000000/4000.0)));
   706  000D2E  0E06               	movlw	6
   707  000D30  0100               	movlb	0	; () banked
   708  000D32  6F7E               	movwf	(??_main+1)& (0+255),b
   709  000D34  0E13               	movlw	19
   710  000D36  6F7D               	movwf	??_main& (0+255),b
   711  000D38  0EAD               	movlw	173
   712  000D3A                     u2147:
   713  000D3A  2EE8               	decfsz	wreg,f,c
   714  000D3C  D7FE               	bra	u2147
   715  000D3E  2F7D               	decfsz	??_main& (0+255),f,b
   716  000D40  D7FC               	bra	u2147
   717  000D42  2F7E               	decfsz	(??_main+1)& (0+255),f,b
   718  000D44  D7FA               	bra	u2147
   719  000D46  D000               	nop2	
   720                           
   721                           ;ProyectoControl.c: 75: ConfiguraLCD(4);
   722  000D48  0E04               	movlw	4
   723  000D4A  ECAD  F00C         	call	_ConfiguraLCD
   724                           
   725                           ; BSR set to: 0
   726                           ;ProyectoControl.c: 76: InicializaLCD();
   727  000D4E  ECD7  F00A         	call	_InicializaLCD	;wreg free
   728                           
   729                           ;ProyectoControl.c: 77: MensajeLCD_Var("Micros 2021-2");
   730  000D52  0E10               	movlw	low STR_1
   731  000D54  0100               	movlb	0	; () banked
   732  000D56  6F65               	movwf	MensajeLCD_Var@a& (0+255),b
   733  000D58  EC4A  F00C         	call	_MensajeLCD_Var	;wreg free
   734                           
   735                           ; BSR set to: 0
   736                           ;ProyectoControl.c: 78: DireccionaLCD(0xC0);
   737  000D5C  0EC0               	movlw	192
   738  000D5E  ECC7  F00C         	call	_DireccionaLCD
   739                           
   740                           ;ProyectoControl.c: 79: MensajeLCD_Var("Proyecto Carro");
   741  000D62  0E01               	movlw	low STR_2
   742  000D64  0100               	movlb	0	; () banked
   743  000D66  6F65               	movwf	MensajeLCD_Var@a& (0+255),b
   744  000D68  EC4A  F00C         	call	_MensajeLCD_Var	;wreg free
   745                           
   746                           ; BSR set to: 0
   747                           ;ProyectoControl.c: 80: _delay((unsigned long)((2000)*(8000000/4000.0)));
   748  000D6C  0E15               	movlw	21
   749  000D6E  0100               	movlb	0	; () banked
   750  000D70  6F7E               	movwf	(??_main+1)& (0+255),b
   751  000D72  0E4B               	movlw	75
   752  000D74  6F7D               	movwf	??_main& (0+255),b
   753  000D76  0EBE               	movlw	190
   754  000D78                     u2157:
   755  000D78  2EE8               	decfsz	wreg,f,c
   756  000D7A  D7FE               	bra	u2157
   757  000D7C  2F7D               	decfsz	??_main& (0+255),f,b
   758  000D7E  D7FC               	bra	u2157
   759  000D80  2F7E               	decfsz	(??_main+1)& (0+255),f,b
   760  000D82  D7FA               	bra	u2157
   761  000D84  F000               	nop	
   762                           
   763                           ;ProyectoControl.c: 81: BorraLCD();
   764  000D86  ECDE  F00C         	call	_BorraLCD	;wreg free
   765  000D8A                     l2500:
   766                           
   767                           ;ProyectoControl.c: 97: VanX=Conversion(0);
   768  000D8A  0E00               	movlw	0
   769  000D8C  EC5F  F00C         	call	_Conversion
   770  000D90  C060  F068         	movff	?_Conversion,___lwtoft@c
   771  000D94  C061  F069         	movff	?_Conversion+1,___lwtoft@c+1
   772  000D98  EC88  F00C         	call	___lwtoft	;wreg free
   773  000D9C  C068  F085         	movff	?___lwtoft,_VanX
   774  000DA0  C069  F086         	movff	?___lwtoft+1,_VanX+1
   775  000DA4  C06A  F087         	movff	?___lwtoft+2,_VanX+2
   776                           
   777                           ; BSR set to: 0
   778                           ;ProyectoControl.c: 98: VanX=1023-VanX-516;
   779  000DA8  C085  F077         	movff	_VanX,___ftsub@f2
   780  000DAC  C086  F078         	movff	_VanX+1,___ftsub@f2+1
   781  000DB0  C087  F079         	movff	_VanX+2,___ftsub@f2+2
   782  000DB4  0EC0               	movlw	192
   783  000DB6  6F74               	movwf	___ftsub@f1& (0+255),b
   784  000DB8  0E7F               	movlw	127
   785  000DBA  6F75               	movwf	(___ftsub@f1+1)& (0+255),b
   786  000DBC  0E44               	movlw	68
   787  000DBE  6F76               	movwf	(___ftsub@f1+2)& (0+255),b
   788  000DC0  EC12  F00C         	call	___ftsub	;wreg free
   789  000DC4  C074  F07F         	movff	?___ftsub,_main$845
   790  000DC8  C075  F080         	movff	?___ftsub+1,_main$845+1
   791  000DCC  C076  F081         	movff	?___ftsub+2,_main$845+2
   792                           
   793                           ; BSR set to: 0
   794                           ;ProyectoControl.c: 98: VanX=1023-VanX-516;
   795  000DD0  C07F  F068         	movff	_main$845,___ftadd@f1
   796  000DD4  C080  F069         	movff	_main$845+1,___ftadd@f1+1
   797  000DD8  C081  F06A         	movff	_main$845+2,___ftadd@f1+2
   798  000DDC  0E00               	movlw	0
   799  000DDE  6F6B               	movwf	___ftadd@f2& (0+255),b
   800  000DE0  0E01               	movlw	1
   801  000DE2  6F6C               	movwf	(___ftadd@f2+1)& (0+255),b
   802  000DE4  0EC4               	movlw	196
   803  000DE6  6F6D               	movwf	(___ftadd@f2+2)& (0+255),b
   804  000DE8  EC4F  F007         	call	___ftadd	;wreg free
   805  000DEC  C068  F085         	movff	?___ftadd,_VanX
   806  000DF0  C069  F086         	movff	?___ftadd+1,_VanX+1
   807  000DF4  C06A  F087         	movff	?___ftadd+2,_VanX+2
   808                           
   809                           ; BSR set to: 0
   810                           ;ProyectoControl.c: 99: VanY=Conversion(1);
   811  000DF8  0E01               	movlw	1
   812  000DFA  EC5F  F00C         	call	_Conversion
   813  000DFE  C060  F068         	movff	?_Conversion,___lwtoft@c
   814  000E02  C061  F069         	movff	?_Conversion+1,___lwtoft@c+1
   815  000E06  EC88  F00C         	call	___lwtoft	;wreg free
   816  000E0A  C068  F082         	movff	?___lwtoft,_VanY
   817  000E0E  C069  F083         	movff	?___lwtoft+1,_VanY+1
   818  000E12  C06A  F084         	movff	?___lwtoft+2,_VanY+2
   819                           
   820                           ; BSR set to: 0
   821                           ;ProyectoControl.c: 100: VanY=1023-VanY-526;
   822  000E16  C082  F077         	movff	_VanY,___ftsub@f2
   823  000E1A  C083  F078         	movff	_VanY+1,___ftsub@f2+1
   824  000E1E  C084  F079         	movff	_VanY+2,___ftsub@f2+2
   825  000E22  0EC0               	movlw	192
   826  000E24  6F74               	movwf	___ftsub@f1& (0+255),b
   827  000E26  0E7F               	movlw	127
   828  000E28  6F75               	movwf	(___ftsub@f1+1)& (0+255),b
   829  000E2A  0E44               	movlw	68
   830  000E2C  6F76               	movwf	(___ftsub@f1+2)& (0+255),b
   831  000E2E  EC12  F00C         	call	___ftsub	;wreg free
   832  000E32  C074  F07F         	movff	?___ftsub,_main$845
   833  000E36  C075  F080         	movff	?___ftsub+1,_main$845+1
   834  000E3A  C076  F081         	movff	?___ftsub+2,_main$845+2
   835                           
   836                           ; BSR set to: 0
   837                           ;ProyectoControl.c: 100: VanY=1023-VanY-526;
   838  000E3E  C07F  F068         	movff	_main$845,___ftadd@f1
   839  000E42  C080  F069         	movff	_main$845+1,___ftadd@f1+1
   840  000E46  C081  F06A         	movff	_main$845+2,___ftadd@f1+2
   841  000E4A  0E80               	movlw	128
   842  000E4C  6F6B               	movwf	___ftadd@f2& (0+255),b
   843  000E4E  0E03               	movlw	3
   844  000E50  6F6C               	movwf	(___ftadd@f2+1)& (0+255),b
   845  000E52  0EC4               	movlw	196
   846  000E54  6F6D               	movwf	(___ftadd@f2+2)& (0+255),b
   847  000E56  EC4F  F007         	call	___ftadd	;wreg free
   848  000E5A  C068  F082         	movff	?___ftadd,_VanY
   849  000E5E  C069  F083         	movff	?___ftadd+1,_VanY+1
   850  000E62  C06A  F084         	movff	?___ftadd+2,_VanY+2
   851                           
   852                           ; BSR set to: 0
   853                           ;ProyectoControl.c: 102: _delay((unsigned long)((175)*(8000000/4000.0)));
   854  000E66  0E02               	movlw	2
   855  000E68  0100               	movlb	0	; () banked
   856  000E6A  6F7E               	movwf	(??_main+1)& (0+255),b
   857  000E6C  0EC7               	movlw	199
   858  000E6E  6F7D               	movwf	??_main& (0+255),b
   859  000E70  0E88               	movlw	136
   860  000E72                     u2167:
   861  000E72  2EE8               	decfsz	wreg,f,c
   862  000E74  D7FE               	bra	u2167
   863  000E76  2F7D               	decfsz	??_main& (0+255),f,b
   864  000E78  D7FC               	bra	u2167
   865  000E7A  2F7E               	decfsz	(??_main+1)& (0+255),f,b
   866  000E7C  D7FA               	bra	u2167
   867  000E7E  F000               	nop	
   868                           
   869                           ;ProyectoControl.c: 103: Duty(VanY,VanX);
   870  000E80  C082  F077         	movff	_VanY,Duty@V
   871  000E84  C083  F078         	movff	_VanY+1,Duty@V+1
   872  000E88  C084  F079         	movff	_VanY+2,Duty@V+2
   873  000E8C  C085  F07A         	movff	_VanX,Duty@X
   874  000E90  C086  F07B         	movff	_VanX+1,Duty@X+1
   875  000E94  C087  F07C         	movff	_VanX+2,Duty@X+2
   876  000E98  EC1B  F004         	call	_Duty	;wreg free
   877  000E9C  D776               	goto	l2500
   878  000E9E                     __end_of_main:
   879                           	callstack 0
   880                           
   881 ;; *************** function ___lwtoft *****************
   882 ;; Defined at:
   883 ;;		line 28 in file "C:\Program Files\Microchip\xc8\v2.32\pic\sources\c90\common\lwtoft.c"
   884 ;; Parameters:    Size  Location     Type
   885 ;;  c               2    8[BANK0 ] unsigned int 
   886 ;; Auto vars:     Size  Location     Type
   887 ;;		None
   888 ;; Return value:  Size  Location     Type
   889 ;;                  3    8[BANK0 ] float 
   890 ;; Registers used:
   891 ;;		wreg, status,2, status,0, cstack
   892 ;; Tracked objects:
   893 ;;		On entry : 0/0
   894 ;;		On exit  : 3F/0
   895 ;;		Unchanged: 0/0
   896 ;; Data sizes:     COMRAM   BANK0   BANK1   BANK2   BANK3   BANK4   BANK5   BANK6   BANK7
   897 ;;      Params:         0       3       0       0       0       0       0       0       0
   898 ;;      Locals:         0       0       0       0       0       0       0       0       0
   899 ;;      Temps:          0       0       0       0       0       0       0       0       0
   900 ;;      Totals:         0       3       0       0       0       0       0       0       0
   901 ;;Total ram usage:        3 bytes
   902 ;; Hardware stack levels used: 1
   903 ;; Hardware stack levels required when called: 6
   904 ;; This function calls:
   905 ;;		___ftpack
   906 ;; This function is called by:
   907 ;;		_main
   908 ;; This function uses a non-reentrant model
   909 ;;
   910                           
   911                           	psect	text1
   912  001910                     __ptext1:
   913                           	callstack 0
   914  001910                     ___lwtoft:
   915                           	callstack 24
   916                           
   917                           ;incstack = 0
   918  001910  C068  F060         	movff	___lwtoft@c,___ftpack@arg
   919  001914  C069  F061         	movff	___lwtoft@c+1,___ftpack@arg+1
   920  001918  0100               	movlb	0	; () banked
   921  00191A  6B62               	clrf	(___ftpack@arg+2)& (0+255),b
   922  00191C  0E8E               	movlw	142
   923  00191E  6F63               	movwf	___ftpack@exp& (0+255),b
   924  001920  0E00               	movlw	0
   925  001922  6F64               	movwf	___ftpack@sign& (0+255),b
   926  001924  ECD3  F009         	call	___ftpack	;wreg free
   927  001928  C060  F068         	movff	?___ftpack,?___lwtoft
   928  00192C  C061  F069         	movff	?___ftpack+1,?___lwtoft+1
   929  001930  C062  F06A         	movff	?___ftpack+2,?___lwtoft+2
   930                           
   931                           ; BSR set to: 0
   932  001934  0012               	return		;funcret
   933  001936                     __end_of___lwtoft:
   934                           	callstack 0
   935                           
   936 ;; *************** function ___ftsub *****************
   937 ;; Defined at:
   938 ;;		line 19 in file "C:\Program Files\Microchip\xc8\v2.32\pic\sources\c90\common\ftsub.c"
   939 ;; Parameters:    Size  Location     Type
   940 ;;  f1              3   20[BANK0 ] float 
   941 ;;  f2              3   23[BANK0 ] float 
   942 ;; Auto vars:     Size  Location     Type
   943 ;;		None
   944 ;; Return value:  Size  Location     Type
   945 ;;                  3   20[BANK0 ] float 
   946 ;; Registers used:
   947 ;;		wreg, status,2, status,0, cstack
   948 ;; Tracked objects:
   949 ;;		On entry : 3F/0
   950 ;;		On exit  : 3F/0
   951 ;;		Unchanged: 0/0
   952 ;; Data sizes:     COMRAM   BANK0   BANK1   BANK2   BANK3   BANK4   BANK5   BANK6   BANK7
   953 ;;      Params:         0       6       0       0       0       0       0       0       0
   954 ;;      Locals:         0       0       0       0       0       0       0       0       0
   955 ;;      Temps:          0       0       0       0       0       0       0       0       0
   956 ;;      Totals:         0       6       0       0       0       0       0       0       0
   957 ;;Total ram usage:        6 bytes
   958 ;; Hardware stack levels used: 1
   959 ;; Hardware stack levels required when called: 7
   960 ;; This function calls:
   961 ;;		___ftadd
   962 ;; This function is called by:
   963 ;;		_main
   964 ;; This function uses a non-reentrant model
   965 ;;
   966                           
   967                           	psect	text2
   968  001824                     __ptext2:
   969                           	callstack 0
   970  001824                     ___ftsub:
   971                           	callstack 23
   972                           
   973                           ; BSR set to: 0
   974                           
   975                           ; BSR set to: 0
   976                           ;incstack = 0
   977  001824  5177               	movf	___ftsub@f2& (0+255),w,b
   978  001826  1178               	iorwf	(___ftsub@f2+1)& (0+255),w,b
   979  001828  1179               	iorwf	(___ftsub@f2+2)& (0+255),w,b
   980  00182A  B4D8               	btfsc	status,2,c
   981  00182C  D006               	goto	l2428
   982                           
   983                           ; BSR set to: 0
   984  00182E  0E00               	movlw	0
   985  001830  1B77               	xorwf	___ftsub@f2& (0+255),f,b
   986  001832  0E00               	movlw	0
   987  001834  1B78               	xorwf	(___ftsub@f2+1)& (0+255),f,b
   988  001836  0E80               	movlw	128
   989  001838  1B79               	xorwf	(___ftsub@f2+2)& (0+255),f,b
   990  00183A                     l2428:
   991                           
   992                           ; BSR set to: 0
   993  00183A  C074  F068         	movff	___ftsub@f1,___ftadd@f1
   994  00183E  C075  F069         	movff	___ftsub@f1+1,___ftadd@f1+1
   995  001842  C076  F06A         	movff	___ftsub@f1+2,___ftadd@f1+2
   996  001846  C077  F06B         	movff	___ftsub@f2,___ftadd@f2
   997  00184A  C078  F06C         	movff	___ftsub@f2+1,___ftadd@f2+1
   998  00184E  C079  F06D         	movff	___ftsub@f2+2,___ftadd@f2+2
   999  001852  EC4F  F007         	call	___ftadd	;wreg free
  1000  001856  C068  F074         	movff	?___ftadd,?___ftsub
  1001  00185A  C069  F075         	movff	?___ftadd+1,?___ftsub+1
  1002  00185E  C06A  F076         	movff	?___ftadd+2,?___ftsub+2
  1003                           
  1004                           ; BSR set to: 0
  1005  001862  0012               	return		;funcret
  1006  001864                     __end_of___ftsub:
  1007                           	callstack 0
  1008                           
  1009 ;; *************** function ___ftadd *****************
  1010 ;; Defined at:
  1011 ;;		line 86 in file "C:\Program Files\Microchip\xc8\v2.32\pic\sources\c90\common\ftadd.c"
  1012 ;; Parameters:    Size  Location     Type
  1013 ;;  f1              3    8[BANK0 ] float 
  1014 ;;  f2              3   11[BANK0 ] float 
  1015 ;; Auto vars:     Size  Location     Type
  1016 ;;  exp1            1   19[BANK0 ] unsigned char 
  1017 ;;  exp2            1   18[BANK0 ] unsigned char 
  1018 ;;  sign            1   17[BANK0 ] unsigned char 
  1019 ;; Return value:  Size  Location     Type
  1020 ;;                  3    8[BANK0 ] float 
  1021 ;; Registers used:
  1022 ;;		wreg, status,2, status,0, cstack
  1023 ;; Tracked objects:
  1024 ;;		On entry : 3F/0
  1025 ;;		On exit  : 3F/0
  1026 ;;		Unchanged: 0/0
  1027 ;; Data sizes:     COMRAM   BANK0   BANK1   BANK2   BANK3   BANK4   BANK5   BANK6   BANK7
  1028 ;;      Params:         0       6       0       0       0       0       0       0       0
  1029 ;;      Locals:         0       3       0       0       0       0       0       0       0
  1030 ;;      Temps:          0       3       0       0       0       0       0       0       0
  1031 ;;      Totals:         0      12       0       0       0       0       0       0       0
  1032 ;;Total ram usage:       12 bytes
  1033 ;; Hardware stack levels used: 1
  1034 ;; Hardware stack levels required when called: 6
  1035 ;; This function calls:
  1036 ;;		___ftpack
  1037 ;; This function is called by:
  1038 ;;		_main
  1039 ;;		___ftsub
  1040 ;; This function uses a non-reentrant model
  1041 ;;
  1042                           
  1043                           	psect	text3
  1044  000E9E                     __ptext3:
  1045                           	callstack 0
  1046  000E9E                     ___ftadd:
  1047                           	callstack 23
  1048                           
  1049                           ; BSR set to: 0
  1050                           
  1051                           ; BSR set to: 0
  1052                           ;incstack = 0
  1053  000E9E  C06A  F06E         	movff	___ftadd@f1+2,??___ftadd
  1054  000EA2  6B6F               	clrf	(??___ftadd+1)& (0+255),b
  1055  000EA4  6B70               	clrf	(??___ftadd+2)& (0+255),b
  1056  000EA6  3569               	rlcf	(___ftadd@f1+1)& (0+255),w,b
  1057  000EA8  376E               	rlcf	??___ftadd& (0+255),f,b
  1058  000EAA  E301               	bnc	u1291
  1059  000EAC  816F               	bsf	(??___ftadd+1)& (0+255),0,b
  1060  000EAE                     u1291:
  1061  000EAE  516E               	movf	??___ftadd& (0+255),w,b
  1062  000EB0  6F73               	movwf	___ftadd@exp1& (0+255),b
  1063  000EB2  C06D  F06E         	movff	___ftadd@f2+2,??___ftadd
  1064  000EB6  6B6F               	clrf	(??___ftadd+1)& (0+255),b
  1065  000EB8  6B70               	clrf	(??___ftadd+2)& (0+255),b
  1066  000EBA  356C               	rlcf	(___ftadd@f2+1)& (0+255),w,b
  1067  000EBC  376E               	rlcf	??___ftadd& (0+255),f,b
  1068  000EBE  E301               	bnc	u1301
  1069  000EC0  816F               	bsf	(??___ftadd+1)& (0+255),0,b
  1070  000EC2                     u1301:
  1071  000EC2  516E               	movf	??___ftadd& (0+255),w,b
  1072  000EC4  6F72               	movwf	___ftadd@exp2& (0+255),b
  1073                           
  1074                           ; BSR set to: 0
  1075  000EC6  5173               	movf	___ftadd@exp1& (0+255),w,b
  1076  000EC8  B4D8               	btfsc	status,2,c
  1077  000ECA  D00A               	goto	u1330
  1078                           
  1079                           ; BSR set to: 0
  1080  000ECC  5172               	movf	___ftadd@exp2& (0+255),w,b
  1081  000ECE  5D73               	subwf	___ftadd@exp1& (0+255),w,b
  1082  000ED0  B0D8               	btfsc	status,0,c
  1083  000ED2  D00D               	goto	l1992
  1084                           
  1085                           ; BSR set to: 0
  1086  000ED4  5173               	movf	___ftadd@exp1& (0+255),w,b
  1087  000ED6  5D72               	subwf	___ftadd@exp2& (0+255),w,b
  1088  000ED8  6F6E               	movwf	??___ftadd& (0+255),b
  1089  000EDA  0E18               	movlw	24
  1090  000EDC  656E               	cpfsgt	??___ftadd& (0+255),b
  1091  000EDE  D007               	goto	l1992
  1092  000EE0                     u1330:
  1093                           
  1094                           ; BSR set to: 0
  1095  000EE0  C06B  F068         	movff	___ftadd@f2,?___ftadd
  1096  000EE4  C06C  F069         	movff	___ftadd@f2+1,?___ftadd+1
  1097  000EE8  C06D  F06A         	movff	___ftadd@f2+2,?___ftadd+2
  1098  000EEC  0012               	return	
  1099  000EEE                     l1992:
  1100                           
  1101                           ; BSR set to: 0
  1102  000EEE  5172               	movf	___ftadd@exp2& (0+255),w,b
  1103  000EF0  B4D8               	btfsc	status,2,c
  1104  000EF2  D00A               	goto	u1360
  1105                           
  1106                           ; BSR set to: 0
  1107  000EF4  5173               	movf	___ftadd@exp1& (0+255),w,b
  1108  000EF6  5D72               	subwf	___ftadd@exp2& (0+255),w,b
  1109  000EF8  B0D8               	btfsc	status,0,c
  1110  000EFA  D00D               	goto	l1998
  1111                           
  1112                           ; BSR set to: 0
  1113  000EFC  5172               	movf	___ftadd@exp2& (0+255),w,b
  1114  000EFE  5D73               	subwf	___ftadd@exp1& (0+255),w,b
  1115  000F00  6F6E               	movwf	??___ftadd& (0+255),b
  1116  000F02  0E18               	movlw	24
  1117  000F04  656E               	cpfsgt	??___ftadd& (0+255),b
  1118  000F06  D007               	goto	l1998
  1119  000F08                     u1360:
  1120                           
  1121                           ; BSR set to: 0
  1122  000F08  C068  F068         	movff	___ftadd@f1,?___ftadd
  1123  000F0C  C069  F069         	movff	___ftadd@f1+1,?___ftadd+1
  1124  000F10  C06A  F06A         	movff	___ftadd@f1+2,?___ftadd+2
  1125  000F14  0012               	return	
  1126  000F16                     l1998:
  1127                           
  1128                           ; BSR set to: 0
  1129  000F16  0E06               	movlw	6
  1130  000F18  6F71               	movwf	___ftadd@sign& (0+255),b
  1131                           
  1132                           ; BSR set to: 0
  1133  000F1A  BF6A               	btfsc	(___ftadd@f1+2)& (0+255),7,b
  1134                           
  1135                           ; BSR set to: 0
  1136  000F1C  8F71               	bsf	___ftadd@sign& (0+255),7,b
  1137                           
  1138                           ; BSR set to: 0
  1139  000F1E  BF6D               	btfsc	(___ftadd@f2+2)& (0+255),7,b
  1140                           
  1141                           ; BSR set to: 0
  1142  000F20  8D71               	bsf	___ftadd@sign& (0+255),6,b
  1143                           
  1144                           ; BSR set to: 0
  1145  000F22  8F69               	bsf	(___ftadd@f1+1)& (0+255),7,b
  1146                           
  1147                           ; BSR set to: 0
  1148  000F24  0EFF               	movlw	255
  1149  000F26  1768               	andwf	___ftadd@f1& (0+255),f,b
  1150  000F28  0EFF               	movlw	255
  1151  000F2A  1769               	andwf	(___ftadd@f1+1)& (0+255),f,b
  1152  000F2C  0E00               	movlw	0
  1153  000F2E  176A               	andwf	(___ftadd@f1+2)& (0+255),f,b
  1154  000F30  8F6C               	bsf	(___ftadd@f2+1)& (0+255),7,b
  1155                           
  1156                           ; BSR set to: 0
  1157  000F32  0EFF               	movlw	255
  1158  000F34  176B               	andwf	___ftadd@f2& (0+255),f,b
  1159  000F36  0EFF               	movlw	255
  1160  000F38  176C               	andwf	(___ftadd@f2+1)& (0+255),f,b
  1161  000F3A  0E00               	movlw	0
  1162  000F3C  176D               	andwf	(___ftadd@f2+2)& (0+255),f,b
  1163                           
  1164                           ; BSR set to: 0
  1165  000F3E  5172               	movf	___ftadd@exp2& (0+255),w,b
  1166  000F40  5D73               	subwf	___ftadd@exp1& (0+255),w,b
  1167  000F42  B0D8               	btfsc	status,0,c
  1168  000F44  D01B               	goto	l2024
  1169  000F46                     u1390:
  1170                           
  1171                           ; BSR set to: 0
  1172  000F46  90D8               	bcf	status,0,c
  1173  000F48  376B               	rlcf	___ftadd@f2& (0+255),f,b
  1174  000F4A  376C               	rlcf	(___ftadd@f2+1)& (0+255),f,b
  1175  000F4C  376D               	rlcf	(___ftadd@f2+2)& (0+255),f,b
  1176  000F4E  0772               	decf	___ftadd@exp2& (0+255),f,b
  1177                           
  1178                           ; BSR set to: 0
  1179  000F50  5173               	movf	___ftadd@exp1& (0+255),w,b
  1180  000F52  1972               	xorwf	___ftadd@exp2& (0+255),w,b
  1181  000F54  B4D8               	btfsc	status,2,c
  1182  000F56  D00D               	goto	l2022
  1183                           
  1184                           ; BSR set to: 0
  1185  000F58  0771               	decf	___ftadd@sign& (0+255),f,b
  1186  000F5A  C071  F06E         	movff	___ftadd@sign,??___ftadd
  1187  000F5E  0E07               	movlw	7
  1188  000F60  176E               	andwf	??___ftadd& (0+255),f,b
  1189  000F62  B4D8               	btfsc	status,2,c
  1190  000F64  D006               	goto	l2022
  1191  000F66  D7EF               	goto	u1390
  1192  000F68                     l2020:
  1193                           
  1194                           ; BSR set to: 0
  1195  000F68  90D8               	bcf	status,0,c
  1196  000F6A  336A               	rrcf	(___ftadd@f1+2)& (0+255),f,b
  1197  000F6C  3369               	rrcf	(___ftadd@f1+1)& (0+255),f,b
  1198  000F6E  3368               	rrcf	___ftadd@f1& (0+255),f,b
  1199  000F70  2B73               	incf	___ftadd@exp1& (0+255),f,b
  1200  000F72                     l2022:
  1201                           
  1202                           ; BSR set to: 0
  1203  000F72  5172               	movf	___ftadd@exp2& (0+255),w,b
  1204  000F74  1973               	xorwf	___ftadd@exp1& (0+255),w,b
  1205  000F76  B4D8               	btfsc	status,2,c
  1206  000F78  D01F               	goto	u1460
  1207  000F7A  D7F6               	goto	l2020
  1208  000F7C                     l2024:
  1209                           
  1210                           ; BSR set to: 0
  1211  000F7C  5173               	movf	___ftadd@exp1& (0+255),w,b
  1212  000F7E  5D72               	subwf	___ftadd@exp2& (0+255),w,b
  1213  000F80  B0D8               	btfsc	status,0,c
  1214  000F82  D01A               	goto	u1460
  1215  000F84                     u1430:
  1216                           
  1217                           ; BSR set to: 0
  1218  000F84  90D8               	bcf	status,0,c
  1219  000F86  3768               	rlcf	___ftadd@f1& (0+255),f,b
  1220  000F88  3769               	rlcf	(___ftadd@f1+1)& (0+255),f,b
  1221  000F8A  376A               	rlcf	(___ftadd@f1+2)& (0+255),f,b
  1222  000F8C  0773               	decf	___ftadd@exp1& (0+255),f,b
  1223                           
  1224                           ; BSR set to: 0
  1225  000F8E  5173               	movf	___ftadd@exp1& (0+255),w,b
  1226  000F90  1972               	xorwf	___ftadd@exp2& (0+255),w,b
  1227  000F92  B4D8               	btfsc	status,2,c
  1228  000F94  D00D               	goto	l2034
  1229                           
  1230                           ; BSR set to: 0
  1231  000F96  0771               	decf	___ftadd@sign& (0+255),f,b
  1232  000F98  C071  F06E         	movff	___ftadd@sign,??___ftadd
  1233  000F9C  0E07               	movlw	7
  1234  000F9E  176E               	andwf	??___ftadd& (0+255),f,b
  1235  000FA0  B4D8               	btfsc	status,2,c
  1236  000FA2  D006               	goto	l2034
  1237  000FA4  D7EF               	goto	u1430
  1238  000FA6                     l2032:
  1239                           
  1240                           ; BSR set to: 0
  1241  000FA6  90D8               	bcf	status,0,c
  1242  000FA8  336D               	rrcf	(___ftadd@f2+2)& (0+255),f,b
  1243  000FAA  336C               	rrcf	(___ftadd@f2+1)& (0+255),f,b
  1244  000FAC  336B               	rrcf	___ftadd@f2& (0+255),f,b
  1245  000FAE  2B72               	incf	___ftadd@exp2& (0+255),f,b
  1246  000FB0                     l2034:
  1247                           
  1248                           ; BSR set to: 0
  1249  000FB0  5172               	movf	___ftadd@exp2& (0+255),w,b
  1250  000FB2  1973               	xorwf	___ftadd@exp1& (0+255),w,b
  1251  000FB4  A4D8               	btfss	status,2,c
  1252  000FB6  D7F7               	goto	l2032
  1253  000FB8                     u1460:
  1254                           
  1255                           ; BSR set to: 0
  1256  000FB8  AF71               	btfss	___ftadd@sign& (0+255),7,b
  1257  000FBA  D00C               	goto	l655
  1258                           
  1259                           ; BSR set to: 0
  1260  000FBC  0EFF               	movlw	255
  1261  000FBE  1B68               	xorwf	___ftadd@f1& (0+255),f,b
  1262  000FC0  0EFF               	movlw	255
  1263  000FC2  1B69               	xorwf	(___ftadd@f1+1)& (0+255),f,b
  1264  000FC4  0EFF               	movlw	255
  1265  000FC6  1B6A               	xorwf	(___ftadd@f1+2)& (0+255),f,b
  1266  000FC8  0E01               	movlw	1
  1267  000FCA  2768               	addwf	___ftadd@f1& (0+255),f,b
  1268  000FCC  0E00               	movlw	0
  1269  000FCE  2369               	addwfc	(___ftadd@f1+1)& (0+255),f,b
  1270  000FD0  0E00               	movlw	0
  1271  000FD2  236A               	addwfc	(___ftadd@f1+2)& (0+255),f,b
  1272  000FD4                     l655:
  1273                           
  1274                           ; BSR set to: 0
  1275  000FD4  AD71               	btfss	___ftadd@sign& (0+255),6,b
  1276  000FD6  D00C               	goto	l2040
  1277                           
  1278                           ; BSR set to: 0
  1279  000FD8  0EFF               	movlw	255
  1280  000FDA  1B6B               	xorwf	___ftadd@f2& (0+255),f,b
  1281  000FDC  0EFF               	movlw	255
  1282  000FDE  1B6C               	xorwf	(___ftadd@f2+1)& (0+255),f,b
  1283  000FE0  0EFF               	movlw	255
  1284  000FE2  1B6D               	xorwf	(___ftadd@f2+2)& (0+255),f,b
  1285  000FE4  0E01               	movlw	1
  1286  000FE6  276B               	addwf	___ftadd@f2& (0+255),f,b
  1287  000FE8  0E00               	movlw	0
  1288  000FEA  236C               	addwfc	(___ftadd@f2+1)& (0+255),f,b
  1289  000FEC  0E00               	movlw	0
  1290  000FEE  236D               	addwfc	(___ftadd@f2+2)& (0+255),f,b
  1291  000FF0                     l2040:
  1292                           
  1293                           ; BSR set to: 0
  1294  000FF0  0E00               	movlw	0
  1295  000FF2  6F71               	movwf	___ftadd@sign& (0+255),b
  1296                           
  1297                           ; BSR set to: 0
  1298  000FF4  5168               	movf	___ftadd@f1& (0+255),w,b
  1299  000FF6  276B               	addwf	___ftadd@f2& (0+255),f,b
  1300  000FF8  5169               	movf	(___ftadd@f1+1)& (0+255),w,b
  1301  000FFA  236C               	addwfc	(___ftadd@f2+1)& (0+255),f,b
  1302  000FFC  516A               	movf	(___ftadd@f1+2)& (0+255),w,b
  1303  000FFE  236D               	addwfc	(___ftadd@f2+2)& (0+255),f,b
  1304                           
  1305                           ; BSR set to: 0
  1306  001000  AF6D               	btfss	(___ftadd@f2+2)& (0+255),7,b
  1307  001002  D00E               	goto	l2050
  1308                           
  1309                           ; BSR set to: 0
  1310  001004  0EFF               	movlw	255
  1311  001006  1B6B               	xorwf	___ftadd@f2& (0+255),f,b
  1312  001008  0EFF               	movlw	255
  1313  00100A  1B6C               	xorwf	(___ftadd@f2+1)& (0+255),f,b
  1314  00100C  0EFF               	movlw	255
  1315  00100E  1B6D               	xorwf	(___ftadd@f2+2)& (0+255),f,b
  1316  001010  0E01               	movlw	1
  1317  001012  276B               	addwf	___ftadd@f2& (0+255),f,b
  1318  001014  0E00               	movlw	0
  1319  001016  236C               	addwfc	(___ftadd@f2+1)& (0+255),f,b
  1320  001018  0E00               	movlw	0
  1321  00101A  236D               	addwfc	(___ftadd@f2+2)& (0+255),f,b
  1322                           
  1323                           ; BSR set to: 0
  1324  00101C  0E01               	movlw	1
  1325  00101E  6F71               	movwf	___ftadd@sign& (0+255),b
  1326  001020                     l2050:
  1327                           
  1328                           ; BSR set to: 0
  1329  001020  C06B  F060         	movff	___ftadd@f2,___ftpack@arg
  1330  001024  C06C  F061         	movff	___ftadd@f2+1,___ftpack@arg+1
  1331  001028  C06D  F062         	movff	___ftadd@f2+2,___ftpack@arg+2
  1332  00102C  C073  F063         	movff	___ftadd@exp1,___ftpack@exp
  1333  001030  C071  F064         	movff	___ftadd@sign,___ftpack@sign
  1334  001034  ECD3  F009         	call	___ftpack	;wreg free
  1335  001038  C060  F068         	movff	?___ftpack,?___ftadd
  1336  00103C  C061  F069         	movff	?___ftpack+1,?___ftadd+1
  1337  001040  C062  F06A         	movff	?___ftpack+2,?___ftadd+2
  1338                           
  1339                           ; BSR set to: 0
  1340  001044  0012               	return		;funcret
  1341  001046                     __end_of___ftadd:
  1342                           	callstack 0
  1343                           
  1344 ;; *************** function _MensajeLCD_Var *****************
  1345 ;; Defined at:
  1346 ;;		line 298 in file "LibLCDXC8.h"
  1347 ;; Parameters:    Size  Location     Type
  1348 ;;  a               1    5[BANK0 ] PTR unsigned char 
  1349 ;;		 -> STR_4(12), STR_3(11), STR_2(15), STR_1(14), 
  1350 ;; Auto vars:     Size  Location     Type
  1351 ;;		None
  1352 ;; Return value:  Size  Location     Type
  1353 ;;                  1    wreg      void 
  1354 ;; Registers used:
  1355 ;;		wreg, status,2, status,0, tblptrl, tblptrh, tblptru, cstack
  1356 ;; Tracked objects:
  1357 ;;		On entry : 3F/0
  1358 ;;		On exit  : 3F/0
  1359 ;;		Unchanged: 0/0
  1360 ;; Data sizes:     COMRAM   BANK0   BANK1   BANK2   BANK3   BANK4   BANK5   BANK6   BANK7
  1361 ;;      Params:         0       1       0       0       0       0       0       0       0
  1362 ;;      Locals:         0       0       0       0       0       0       0       0       0
  1363 ;;      Temps:          0       0       0       0       0       0       0       0       0
  1364 ;;      Totals:         0       1       0       0       0       0       0       0       0
  1365 ;;Total ram usage:        1 bytes
  1366 ;; Hardware stack levels used: 1
  1367 ;; Hardware stack levels required when called: 8
  1368 ;; This function calls:
  1369 ;;		_EscribeLCD_c
  1370 ;; This function is called by:
  1371 ;;		_main
  1372 ;; This function uses a non-reentrant model
  1373 ;;
  1374                           
  1375                           	psect	text4
  1376  001894                     __ptext4:
  1377                           	callstack 0
  1378  001894                     _MensajeLCD_Var:
  1379                           	callstack 22
  1380                           
  1381                           ; BSR set to: 0
  1382                           ;LibLCDXC8.h: 302: while(*a != '\0'){
  1383                           
  1384                           ; BSR set to: 0
  1385                           ;incstack = 0
  1386  001894  D00A               	goto	l2288
  1387  001896                     l2284:
  1388                           
  1389                           ; BSR set to: 0
  1390                           ;LibLCDXC8.h: 303: EscribeLCD_c(*a);
  1391  001896  C065  FFF6         	movff	MensajeLCD_Var@a,tblptrl
  1392  00189A                     	if	1	;There is more than 1 active tblptr byte
  1393  00189A  0E08               	movlw	high __smallconst
  1394  00189C  6EF7               	movwf	tblptrh,c
  1395  00189E                     	endif
  1396  00189E                     	if	0	;tblptru may be non-zero
  1397  00189E                     	endif
  1398  00189E                     	if	0	;tblptru may be non-zero
  1399  00189E                     	endif
  1400  00189E  0008               	tblrd		*
  1401  0018A0  50F5               	movf	tablat,w,c
  1402  0018A2  ECBB  F00C         	call	_EscribeLCD_c
  1403                           
  1404                           ;LibLCDXC8.h: 304: a++;
  1405  0018A6  0100               	movlb	0	; () banked
  1406  0018A8  2B65               	incf	MensajeLCD_Var@a& (0+255),f,b
  1407  0018AA                     l2288:
  1408                           
  1409                           ; BSR set to: 0
  1410  0018AA  C065  FFF6         	movff	MensajeLCD_Var@a,tblptrl
  1411  0018AE                     	if	1	;There is more than 1 active tblptr byte
  1412  0018AE  0E08               	movlw	high __smallconst
  1413  0018B0  6EF7               	movwf	tblptrh,c
  1414  0018B2                     	endif
  1415  0018B2                     	if	0	;tblptru may be non-zero
  1416  0018B2                     	endif
  1417  0018B2                     	if	0	;tblptru may be non-zero
  1418  0018B2                     	endif
  1419  0018B2  0008               	tblrd		*
  1420  0018B4  50F5               	movf	tablat,w,c
  1421  0018B6  0900               	iorlw	0
  1422  0018B8  B4D8               	btfsc	status,2,c
  1423  0018BA  0012               	return	
  1424  0018BC  D7EC               	goto	l2284
  1425  0018BE                     __end_of_MensajeLCD_Var:
  1426                           	callstack 0
  1427                           
  1428 ;; *************** function _EscribeLCD_c *****************
  1429 ;; Defined at:
  1430 ;;		line 118 in file "LibLCDXC8.h"
  1431 ;; Parameters:    Size  Location     Type
  1432 ;;  a               1    wreg     unsigned char 
  1433 ;; Auto vars:     Size  Location     Type
  1434 ;;  a               1    4[BANK0 ] unsigned char 
  1435 ;; Return value:  Size  Location     Type
  1436 ;;                  1    wreg      void 
  1437 ;; Registers used:
  1438 ;;		wreg, status,2, status,0, cstack
  1439 ;; Tracked objects:
  1440 ;;		On entry : 3F/0
  1441 ;;		On exit  : 0/0
  1442 ;;		Unchanged: 0/0
  1443 ;; Data sizes:     COMRAM   BANK0   BANK1   BANK2   BANK3   BANK4   BANK5   BANK6   BANK7
  1444 ;;      Params:         0       0       0       0       0       0       0       0       0
  1445 ;;      Locals:         0       1       0       0       0       0       0       0       0
  1446 ;;      Temps:          0       0       0       0       0       0       0       0       0
  1447 ;;      Totals:         0       1       0       0       0       0       0       0       0
  1448 ;;Total ram usage:        1 bytes
  1449 ;; Hardware stack levels used: 1
  1450 ;; Hardware stack levels required when called: 7
  1451 ;; This function calls:
  1452 ;;		_EnviaDato
  1453 ;;		_HabilitaLCD
  1454 ;;		_RetardoLCD
  1455 ;; This function is called by:
  1456 ;;		_MensajeLCD_Var
  1457 ;; This function uses a non-reentrant model
  1458 ;;
  1459                           
  1460                           	psect	text5
  1461  001976                     __ptext5:
  1462                           	callstack 0
  1463  001976                     _EscribeLCD_c:
  1464                           	callstack 22
  1465                           
  1466                           ; BSR set to: 0
  1467                           ;incstack = 0
  1468                           ;EscribeLCD_c@a stored from wreg
  1469  001976  6F64               	movwf	EscribeLCD_c@a& (0+255),b
  1470                           
  1471                           ;LibLCDXC8.h: 122: LATD2=1;
  1472  001978  848C               	bsf	3980,2,c	;volatile
  1473                           
  1474                           ;LibLCDXC8.h: 123: EnviaDato(a);
  1475  00197A  0100               	movlb	0	; () banked
  1476  00197C  5164               	movf	EscribeLCD_c@a& (0+255),w,b
  1477  00197E  ECC9  F00B         	call	_EnviaDato
  1478                           
  1479                           ;LibLCDXC8.h: 124: HabilitaLCD();
  1480  001982  ECF2  F00C         	call	_HabilitaLCD	;wreg free
  1481                           
  1482                           ;LibLCDXC8.h: 125: RetardoLCD(4);
  1483  001986  0E04               	movlw	4
  1484  001988  EC5F  F00B         	call	_RetardoLCD
  1485  00198C  0012               	return		;funcret
  1486  00198E                     __end_of_EscribeLCD_c:
  1487                           	callstack 0
  1488                           
  1489 ;; *************** function _InicializaLCD *****************
  1490 ;; Defined at:
  1491 ;;		line 67 in file "LibLCDXC8.h"
  1492 ;; Parameters:    Size  Location     Type
  1493 ;;		None
  1494 ;; Auto vars:     Size  Location     Type
  1495 ;;		None
  1496 ;; Return value:  Size  Location     Type
  1497 ;;                  1    wreg      void 
  1498 ;; Registers used:
  1499 ;;		wreg, status,2, status,0, cstack
  1500 ;; Tracked objects:
  1501 ;;		On entry : 3F/0
  1502 ;;		On exit  : 0/0
  1503 ;;		Unchanged: 0/0
  1504 ;; Data sizes:     COMRAM   BANK0   BANK1   BANK2   BANK3   BANK4   BANK5   BANK6   BANK7
  1505 ;;      Params:         0       0       0       0       0       0       0       0       0
  1506 ;;      Locals:         0       0       0       0       0       0       0       0       0
  1507 ;;      Temps:          0       0       0       0       0       0       0       0       0
  1508 ;;      Totals:         0       0       0       0       0       0       0       0       0
  1509 ;;Total ram usage:        0 bytes
  1510 ;; Hardware stack levels used: 1
  1511 ;; Hardware stack levels required when called: 8
  1512 ;; This function calls:
  1513 ;;		_BorraLCD
  1514 ;;		_EnviaDato
  1515 ;;		_HabilitaLCD
  1516 ;;		_RetardoLCD
  1517 ;; This function is called by:
  1518 ;;		_main
  1519 ;; This function uses a non-reentrant model
  1520 ;;
  1521                           
  1522                           	psect	text6
  1523  0015AE                     __ptext6:
  1524                           	callstack 0
  1525  0015AE                     _InicializaLCD:
  1526                           	callstack 22
  1527                           
  1528                           ; BSR set to: 0
  1529                           ;LibLCDXC8.h: 69: LATD2=0;
  1530                           
  1531                           ;incstack = 0
  1532  0015AE  948C               	bcf	3980,2,c	;volatile
  1533                           
  1534                           ; BSR set to: 0
  1535                           ;LibLCDXC8.h: 70: if(interfaz==4)
  1536  0015B0  0E04               	movlw	4
  1537  0015B2  1833               	xorwf	_interfaz^0,w,c
  1538  0015B4  A4D8               	btfss	status,2,c
  1539  0015B6  D004               	goto	l2234
  1540                           
  1541                           ; BSR set to: 0
  1542                           ;LibLCDXC8.h: 71: LATD=(LATD & 0b00001111) | 0x30;
  1543  0015B8  508C               	movf	140,w,c	;volatile
  1544  0015BA  0B0F               	andlw	15
  1545  0015BC  0930               	iorlw	48
  1546  0015BE  D001               	goto	L1
  1547  0015C0                     l2234:
  1548                           
  1549                           ; BSR set to: 0
  1550                           ;LibLCDXC8.h: 72: else;LibLCDXC8.h: 73: LATD=0x3F;
  1551  0015C0  0E3F               	movlw	63
  1552  0015C2                     L1:
  1553  0015C2  6E8C               	movwf	140,c	;volatile
  1554                           
  1555                           ; BSR set to: 0
  1556                           ;LibLCDXC8.h: 74: HabilitaLCD();
  1557  0015C4  ECF2  F00C         	call	_HabilitaLCD	;wreg free
  1558                           
  1559                           ;LibLCDXC8.h: 75: RetardoLCD(1);
  1560  0015C8  0E01               	movlw	1
  1561  0015CA  EC5F  F00B         	call	_RetardoLCD
  1562                           
  1563                           ;LibLCDXC8.h: 76: if(interfaz==4)
  1564  0015CE  0E04               	movlw	4
  1565  0015D0  1833               	xorwf	_interfaz^0,w,c
  1566  0015D2  A4D8               	btfss	status,2,c
  1567  0015D4  D004               	goto	l2244
  1568                           
  1569                           ;LibLCDXC8.h: 77: LATD=(LATD & 0b00001111) | 0x30;
  1570  0015D6  508C               	movf	140,w,c	;volatile
  1571  0015D8  0B0F               	andlw	15
  1572  0015DA  0930               	iorlw	48
  1573  0015DC  D001               	goto	L2
  1574  0015DE                     l2244:
  1575                           
  1576                           ;LibLCDXC8.h: 78: else;LibLCDXC8.h: 79: LATD=0x3F;
  1577  0015DE  0E3F               	movlw	63
  1578  0015E0                     L2:
  1579  0015E0  6E8C               	movwf	140,c	;volatile
  1580                           
  1581                           ;LibLCDXC8.h: 80: HabilitaLCD();
  1582  0015E2  ECF2  F00C         	call	_HabilitaLCD	;wreg free
  1583                           
  1584                           ;LibLCDXC8.h: 81: RetardoLCD(3);
  1585  0015E6  0E03               	movlw	3
  1586  0015E8  EC5F  F00B         	call	_RetardoLCD
  1587                           
  1588                           ;LibLCDXC8.h: 82: if(interfaz==4)
  1589  0015EC  0E04               	movlw	4
  1590  0015EE  1833               	xorwf	_interfaz^0,w,c
  1591  0015F0  A4D8               	btfss	status,2,c
  1592  0015F2  D004               	goto	l2254
  1593                           
  1594                           ;LibLCDXC8.h: 83: LATD=(LATD & 0b00001111) | 0x30;
  1595  0015F4  508C               	movf	140,w,c	;volatile
  1596  0015F6  0B0F               	andlw	15
  1597  0015F8  0930               	iorlw	48
  1598  0015FA  D001               	goto	L3
  1599  0015FC                     l2254:
  1600                           
  1601                           ;LibLCDXC8.h: 84: else;LibLCDXC8.h: 85: LATD=0x3F;
  1602  0015FC  0E3F               	movlw	63
  1603  0015FE                     L3:
  1604  0015FE  6E8C               	movwf	140,c	;volatile
  1605                           
  1606                           ;LibLCDXC8.h: 86: HabilitaLCD();
  1607  001600  ECF2  F00C         	call	_HabilitaLCD	;wreg free
  1608                           
  1609                           ;LibLCDXC8.h: 87: RetardoLCD(4);
  1610  001604  0E04               	movlw	4
  1611  001606  EC5F  F00B         	call	_RetardoLCD
  1612                           
  1613                           ;LibLCDXC8.h: 88: if(interfaz==4){
  1614  00160A  0E04               	movlw	4
  1615  00160C  1833               	xorwf	_interfaz^0,w,c
  1616  00160E  A4D8               	btfss	status,2,c
  1617  001610  D011               	goto	l2274
  1618                           
  1619                           ;LibLCDXC8.h: 89: LATD=(LATD & 0b00001111) | 0x20;
  1620  001612  508C               	movf	140,w,c	;volatile
  1621  001614  0B0F               	andlw	15
  1622  001616  0920               	iorlw	32
  1623  001618  6E8C               	movwf	140,c	;volatile
  1624                           
  1625                           ;LibLCDXC8.h: 90: HabilitaLCD();
  1626  00161A  ECF2  F00C         	call	_HabilitaLCD	;wreg free
  1627                           
  1628                           ;LibLCDXC8.h: 91: RetardoLCD(4);
  1629  00161E  0E04               	movlw	4
  1630  001620  EC5F  F00B         	call	_RetardoLCD
  1631                           
  1632                           ;LibLCDXC8.h: 92: EnviaDato(0x2F);
  1633  001624  0E2F               	movlw	47
  1634  001626  ECC9  F00B         	call	_EnviaDato
  1635                           
  1636                           ;LibLCDXC8.h: 93: HabilitaLCD();
  1637  00162A  ECF2  F00C         	call	_HabilitaLCD	;wreg free
  1638                           
  1639                           ;LibLCDXC8.h: 94: RetardoLCD(4);
  1640  00162E  0E04               	movlw	4
  1641  001630  EC5F  F00B         	call	_RetardoLCD
  1642  001634                     l2274:
  1643                           
  1644                           ;LibLCDXC8.h: 95: };LibLCDXC8.h: 96: BorraLCD();
  1645  001634  ECDE  F00C         	call	_BorraLCD	;wreg free
  1646                           
  1647                           ;LibLCDXC8.h: 97: EnviaDato(0xF);
  1648  001638  0E0F               	movlw	15
  1649  00163A  ECC9  F00B         	call	_EnviaDato
  1650                           
  1651                           ;LibLCDXC8.h: 98: HabilitaLCD();
  1652  00163E  ECF2  F00C         	call	_HabilitaLCD	;wreg free
  1653                           
  1654                           ;LibLCDXC8.h: 99: RetardoLCD(4);
  1655  001642  0E04               	movlw	4
  1656  001644  EC5F  F00B         	call	_RetardoLCD
  1657  001648  0012               	return		;funcret
  1658  00164A                     __end_of_InicializaLCD:
  1659                           	callstack 0
  1660                           
  1661 ;; *************** function _Duty *****************
  1662 ;; Defined at:
  1663 ;;		line 223 in file "ProyectoControl.c"
  1664 ;; Parameters:    Size  Location     Type
  1665 ;;  V               3   23[BANK0 ] void 
  1666 ;;  X               3   26[BANK0 ] void 
  1667 ;; Auto vars:     Size  Location     Type
  1668 ;;		None
  1669 ;; Return value:  Size  Location     Type
  1670 ;;                  1    wreg      void 
  1671 ;; Registers used:
  1672 ;;		wreg, status,2, status,0, cstack
  1673 ;; Tracked objects:
  1674 ;;		On entry : 0/0
  1675 ;;		On exit  : 0/0
  1676 ;;		Unchanged: 0/0
  1677 ;; Data sizes:     COMRAM   BANK0   BANK1   BANK2   BANK3   BANK4   BANK5   BANK6   BANK7
  1678 ;;      Params:         0       6       0       0       0       0       0       0       0
  1679 ;;      Locals:         0       0       0       0       0       0       0       0       0
  1680 ;;      Temps:          0       0       0       0       0       0       0       0       0
  1681 ;;      Totals:         0       6       0       0       0       0       0       0       0
  1682 ;;Total ram usage:        6 bytes
  1683 ;; Hardware stack levels used: 1
  1684 ;; Hardware stack levels required when called: 8
  1685 ;; This function calls:
  1686 ;;		_BorraLCD
  1687 ;;		_Transmitir
  1688 ;;		___ftdiv
  1689 ;;		___ftge
  1690 ;; This function is called by:
  1691 ;;		_main
  1692 ;; This function uses a non-reentrant model
  1693 ;;
  1694                           
  1695                           	psect	text7
  1696  000836                     __ptext7:
  1697                           	callstack 0
  1698  000836                     _Duty:
  1699                           	callstack 22
  1700                           
  1701                           ;ProyectoControl.c: 225: if(X>0){
  1702                           
  1703                           ;incstack = 0
  1704  000836  0E00               	movlw	0
  1705  000838  0100               	movlb	0	; () banked
  1706  00083A  6F60               	movwf	___ftge@ff1& (0+255),b
  1707  00083C  0E00               	movlw	0
  1708  00083E  6F61               	movwf	(___ftge@ff1+1)& (0+255),b
  1709  000840  0E00               	movlw	0
  1710  000842  6F62               	movwf	(___ftge@ff1+2)& (0+255),b
  1711  000844  C07A  F063         	movff	Duty@X,___ftge@ff2
  1712  000848  C07B  F064         	movff	Duty@X+1,___ftge@ff2+1
  1713  00084C  C07C  F065         	movff	Duty@X+2,___ftge@ff2+2
  1714  000850  EC25  F00B         	call	___ftge	;wreg free
  1715  000854  B0D8               	btfsc	status,0,c
  1716  000856  D00F               	goto	l2306
  1717                           
  1718                           ; BSR set to: 0
  1719                           ;ProyectoControl.c: 226: X=X/507;
  1720  000858  C07A  F068         	movff	Duty@X,___ftdiv@f1
  1721  00085C  C07B  F069         	movff	Duty@X+1,___ftdiv@f1+1
  1722  000860  C07C  F06A         	movff	Duty@X+2,___ftdiv@f1+2
  1723  000864  0E80               	movlw	128
  1724  000866  6F6B               	movwf	___ftdiv@f2& (0+255),b
  1725  000868  0EFD               	movlw	253
  1726  00086A  6F6C               	movwf	(___ftdiv@f2+1)& (0+255),b
  1727  00086C  0E43               	movlw	67
  1728  00086E  6F6D               	movwf	(___ftdiv@f2+2)& (0+255),b
  1729  000870  EC9D  F008         	call	___ftdiv	;wreg free
  1730  000874  D00E               	goto	L4
  1731  000876                     l2306:
  1732                           
  1733                           ; BSR set to: 0
  1734                           ;ProyectoControl.c: 229: X=X/515;
  1735  000876  C07A  F068         	movff	Duty@X,___ftdiv@f1
  1736  00087A  C07B  F069         	movff	Duty@X+1,___ftdiv@f1+1
  1737  00087E  C07C  F06A         	movff	Duty@X+2,___ftdiv@f1+2
  1738  000882  0EC0               	movlw	192
  1739  000884  6F6B               	movwf	___ftdiv@f2& (0+255),b
  1740  000886  0E00               	movlw	0
  1741  000888  6F6C               	movwf	(___ftdiv@f2+1)& (0+255),b
  1742  00088A  0E44               	movlw	68
  1743  00088C  6F6D               	movwf	(___ftdiv@f2+2)& (0+255),b
  1744  00088E  EC9D  F008         	call	___ftdiv	;wreg free
  1745  000892                     L4:
  1746  000892  C068  F07A         	movff	?___ftdiv,Duty@X
  1747  000896  C069  F07B         	movff	?___ftdiv+1,Duty@X+1
  1748  00089A  C06A  F07C         	movff	?___ftdiv+2,Duty@X+2
  1749                           
  1750                           ; BSR set to: 0
  1751                           ;ProyectoControl.c: 231: };ProyectoControl.c: 233: if (X>=0.9){
  1752  00089E  C07A  F060         	movff	Duty@X,___ftge@ff1
  1753  0008A2  C07B  F061         	movff	Duty@X+1,___ftge@ff1+1
  1754  0008A6  C07C  F062         	movff	Duty@X+2,___ftge@ff1+2
  1755  0008AA  0E66               	movlw	102
  1756  0008AC  6F63               	movwf	___ftge@ff2& (0+255),b
  1757  0008AE  0E66               	movlw	102
  1758  0008B0  6F64               	movwf	(___ftge@ff2+1)& (0+255),b
  1759  0008B2  0E3F               	movlw	63
  1760  0008B4  6F65               	movwf	(___ftge@ff2+2)& (0+255),b
  1761  0008B6  EC25  F00B         	call	___ftge	;wreg free
  1762  0008BA  A0D8               	btfss	status,0,c
  1763  0008BC  D006               	goto	l2312
  1764                           
  1765                           ; BSR set to: 0
  1766                           ;ProyectoControl.c: 234: Transmitir('x');
  1767  0008BE  0E78               	movlw	120
  1768  0008C0  EC00  F00D         	call	_Transmitir
  1769  0008C4                     l2310:
  1770                           
  1771                           ;ProyectoControl.c: 235: BorraLCD();
  1772  0008C4  ECDE  F00C         	call	_BorraLCD	;wreg free
  1773                           
  1774                           ;ProyectoControl.c: 237: }else if(X>=0.5){
  1775  0008C8  0012               	return	
  1776  0008CA                     l2312:
  1777                           
  1778                           ; BSR set to: 0
  1779  0008CA  C07A  F060         	movff	Duty@X,___ftge@ff1
  1780  0008CE  C07B  F061         	movff	Duty@X+1,___ftge@ff1+1
  1781  0008D2  C07C  F062         	movff	Duty@X+2,___ftge@ff1+2
  1782  0008D6  0E00               	movlw	0
  1783  0008D8  6F63               	movwf	___ftge@ff2& (0+255),b
  1784  0008DA  0E00               	movlw	0
  1785  0008DC  6F64               	movwf	(___ftge@ff2+1)& (0+255),b
  1786  0008DE  0E3F               	movlw	63
  1787  0008E0  6F65               	movwf	(___ftge@ff2+2)& (0+255),b
  1788  0008E2  EC25  F00B         	call	___ftge	;wreg free
  1789  0008E6  A0D8               	btfss	status,0,c
  1790  0008E8  D004               	goto	l2316
  1791                           
  1792                           ; BSR set to: 0
  1793                           ;ProyectoControl.c: 238: Transmitir('v');
  1794  0008EA  0E76               	movlw	118
  1795  0008EC  EC00  F00D         	call	_Transmitir
  1796                           
  1797                           ;ProyectoControl.c: 240: }else if(X<=-0.9){
  1798  0008F0  0012               	return	
  1799  0008F2                     l2316:
  1800                           
  1801                           ; BSR set to: 0
  1802  0008F2  0E66               	movlw	102
  1803  0008F4  6F60               	movwf	___ftge@ff1& (0+255),b
  1804  0008F6  0E66               	movlw	102
  1805  0008F8  6F61               	movwf	(___ftge@ff1+1)& (0+255),b
  1806  0008FA  0EBF               	movlw	191
  1807  0008FC  6F62               	movwf	(___ftge@ff1+2)& (0+255),b
  1808  0008FE  C07A  F063         	movff	Duty@X,___ftge@ff2
  1809  000902  C07B  F064         	movff	Duty@X+1,___ftge@ff2+1
  1810  000906  C07C  F065         	movff	Duty@X+2,___ftge@ff2+2
  1811  00090A  EC25  F00B         	call	___ftge	;wreg free
  1812  00090E  A0D8               	btfss	status,0,c
  1813  000910  D004               	goto	l2322
  1814                           
  1815                           ; BSR set to: 0
  1816                           ;ProyectoControl.c: 241: Transmitir('X');
  1817  000912  0E58               	movlw	88
  1818  000914  EC00  F00D         	call	_Transmitir
  1819  000918  D7D5               	goto	l2310
  1820  00091A                     l2322:
  1821                           
  1822                           ; BSR set to: 0
  1823  00091A  0E00               	movlw	0
  1824  00091C  6F60               	movwf	___ftge@ff1& (0+255),b
  1825  00091E  0E00               	movlw	0
  1826  000920  6F61               	movwf	(___ftge@ff1+1)& (0+255),b
  1827  000922  0EBF               	movlw	191
  1828  000924  6F62               	movwf	(___ftge@ff1+2)& (0+255),b
  1829  000926  C07A  F063         	movff	Duty@X,___ftge@ff2
  1830  00092A  C07B  F064         	movff	Duty@X+1,___ftge@ff2+1
  1831  00092E  C07C  F065         	movff	Duty@X+2,___ftge@ff2+2
  1832  000932  EC25  F00B         	call	___ftge	;wreg free
  1833  000936  A0D8               	btfss	status,0,c
  1834  000938  D004               	goto	l2326
  1835                           
  1836                           ; BSR set to: 0
  1837                           ;ProyectoControl.c: 245: Transmitir('V');
  1838  00093A  0E56               	movlw	86
  1839  00093C  EC00  F00D         	call	_Transmitir
  1840                           
  1841                           ;ProyectoControl.c: 247: }else if(V>=0){
  1842  000940  0012               	return	
  1843  000942                     l2326:
  1844                           
  1845                           ; BSR set to: 0
  1846  000942  BF79               	btfsc	(Duty@V+2)& (0+255),7,b
  1847  000944  D0E0               	goto	l2370
  1848                           
  1849                           ; BSR set to: 0
  1850                           ;ProyectoControl.c: 248: V=V/497;
  1851  000946  C077  F068         	movff	Duty@V,___ftdiv@f1
  1852  00094A  C078  F069         	movff	Duty@V+1,___ftdiv@f1+1
  1853  00094E  C079  F06A         	movff	Duty@V+2,___ftdiv@f1+2
  1854  000952  0E80               	movlw	128
  1855  000954  6F6B               	movwf	___ftdiv@f2& (0+255),b
  1856  000956  0EF8               	movlw	248
  1857  000958  6F6C               	movwf	(___ftdiv@f2+1)& (0+255),b
  1858  00095A  0E43               	movlw	67
  1859  00095C  6F6D               	movwf	(___ftdiv@f2+2)& (0+255),b
  1860  00095E  EC9D  F008         	call	___ftdiv	;wreg free
  1861  000962  C068  F077         	movff	?___ftdiv,Duty@V
  1862  000966  C069  F078         	movff	?___ftdiv+1,Duty@V+1
  1863  00096A  C06A  F079         	movff	?___ftdiv+2,Duty@V+2
  1864                           
  1865                           ;ProyectoControl.c: 249: if(V<0.4){
  1866  00096E  C077  F060         	movff	Duty@V,___ftge@ff1
  1867  000972  C078  F061         	movff	Duty@V+1,___ftge@ff1+1
  1868  000976  C079  F062         	movff	Duty@V+2,___ftge@ff1+2
  1869  00097A  0ECD               	movlw	205
  1870  00097C  6F63               	movwf	___ftge@ff2& (0+255),b
  1871  00097E  0ECC               	movlw	204
  1872  000980  6F64               	movwf	(___ftge@ff2+1)& (0+255),b
  1873  000982  0E3E               	movlw	62
  1874  000984  6F65               	movwf	(___ftge@ff2+2)& (0+255),b
  1875  000986  EC25  F00B         	call	___ftge	;wreg free
  1876  00098A  B0D8               	btfsc	status,0,c
  1877  00098C  D004               	goto	l2332
  1878                           
  1879                           ; BSR set to: 0
  1880                           ;ProyectoControl.c: 250: Transmitir('b');
  1881  00098E  0E62               	movlw	98
  1882  000990  EC00  F00D         	call	_Transmitir
  1883                           
  1884                           ;ProyectoControl.c: 252: }else if (V<0.46){
  1885  000994  0012               	return	
  1886  000996                     l2332:
  1887                           
  1888                           ; BSR set to: 0
  1889  000996  C077  F060         	movff	Duty@V,___ftge@ff1
  1890  00099A  C078  F061         	movff	Duty@V+1,___ftge@ff1+1
  1891  00099E  C079  F062         	movff	Duty@V+2,___ftge@ff1+2
  1892  0009A2  0E85               	movlw	133
  1893  0009A4  6F63               	movwf	___ftge@ff2& (0+255),b
  1894  0009A6  0EEB               	movlw	235
  1895  0009A8  6F64               	movwf	(___ftge@ff2+1)& (0+255),b
  1896  0009AA  0E3E               	movlw	62
  1897  0009AC  6F65               	movwf	(___ftge@ff2+2)& (0+255),b
  1898  0009AE  EC25  F00B         	call	___ftge	;wreg free
  1899  0009B2  B0D8               	btfsc	status,0,c
  1900  0009B4  D004               	goto	l2336
  1901                           
  1902                           ; BSR set to: 0
  1903                           ;ProyectoControl.c: 253: Transmitir('c');
  1904  0009B6  0E63               	movlw	99
  1905  0009B8  EC00  F00D         	call	_Transmitir
  1906                           
  1907                           ;ProyectoControl.c: 255: }else if (V<0.52){
  1908  0009BC  0012               	return	
  1909  0009BE                     l2336:
  1910                           
  1911                           ; BSR set to: 0
  1912  0009BE  C077  F060         	movff	Duty@V,___ftge@ff1
  1913  0009C2  C078  F061         	movff	Duty@V+1,___ftge@ff1+1
  1914  0009C6  C079  F062         	movff	Duty@V+2,___ftge@ff1+2
  1915  0009CA  0E1F               	movlw	31
  1916  0009CC  6F63               	movwf	___ftge@ff2& (0+255),b
  1917  0009CE  0E05               	movlw	5
  1918  0009D0  6F64               	movwf	(___ftge@ff2+1)& (0+255),b
  1919  0009D2  0E3F               	movlw	63
  1920  0009D4  6F65               	movwf	(___ftge@ff2+2)& (0+255),b
  1921  0009D6  EC25  F00B         	call	___ftge	;wreg free
  1922  0009DA  B0D8               	btfsc	status,0,c
  1923  0009DC  D004               	goto	l2340
  1924                           
  1925                           ; BSR set to: 0
  1926                           ;ProyectoControl.c: 256: Transmitir('d');
  1927  0009DE  0E64               	movlw	100
  1928  0009E0  EC00  F00D         	call	_Transmitir
  1929                           
  1930                           ;ProyectoControl.c: 258: }else if (V<0.58){
  1931  0009E4  0012               	return	
  1932  0009E6                     l2340:
  1933                           
  1934                           ; BSR set to: 0
  1935  0009E6  C077  F060         	movff	Duty@V,___ftge@ff1
  1936  0009EA  C078  F061         	movff	Duty@V+1,___ftge@ff1+1
  1937  0009EE  C079  F062         	movff	Duty@V+2,___ftge@ff1+2
  1938  0009F2  0E7B               	movlw	123
  1939  0009F4  6F63               	movwf	___ftge@ff2& (0+255),b
  1940  0009F6  0E14               	movlw	20
  1941  0009F8  6F64               	movwf	(___ftge@ff2+1)& (0+255),b
  1942  0009FA  0E3F               	movlw	63
  1943  0009FC  6F65               	movwf	(___ftge@ff2+2)& (0+255),b
  1944  0009FE  EC25  F00B         	call	___ftge	;wreg free
  1945  000A02  B0D8               	btfsc	status,0,c
  1946  000A04  D004               	goto	l2344
  1947                           
  1948                           ; BSR set to: 0
  1949                           ;ProyectoControl.c: 259: Transmitir('e');
  1950  000A06  0E65               	movlw	101
  1951  000A08  EC00  F00D         	call	_Transmitir
  1952                           
  1953                           ;ProyectoControl.c: 261: }else if (V<0.64){
  1954  000A0C  0012               	return	
  1955  000A0E                     l2344:
  1956                           
  1957                           ; BSR set to: 0
  1958  000A0E  C077  F060         	movff	Duty@V,___ftge@ff1
  1959  000A12  C078  F061         	movff	Duty@V+1,___ftge@ff1+1
  1960  000A16  C079  F062         	movff	Duty@V+2,___ftge@ff1+2
  1961  000A1A  0ED7               	movlw	215
  1962  000A1C  6F63               	movwf	___ftge@ff2& (0+255),b
  1963  000A1E  0E23               	movlw	35
  1964  000A20  6F64               	movwf	(___ftge@ff2+1)& (0+255),b
  1965  000A22  0E3F               	movlw	63
  1966  000A24  6F65               	movwf	(___ftge@ff2+2)& (0+255),b
  1967  000A26  EC25  F00B         	call	___ftge	;wreg free
  1968  000A2A  B0D8               	btfsc	status,0,c
  1969  000A2C  D004               	goto	l2348
  1970                           
  1971                           ; BSR set to: 0
  1972                           ;ProyectoControl.c: 262: Transmitir('f');
  1973  000A2E  0E66               	movlw	102
  1974  000A30  EC00  F00D         	call	_Transmitir
  1975                           
  1976                           ;ProyectoControl.c: 264: }else if (V<0.70){
  1977  000A34  0012               	return	
  1978  000A36                     l2348:
  1979                           
  1980                           ; BSR set to: 0
  1981  000A36  C077  F060         	movff	Duty@V,___ftge@ff1
  1982  000A3A  C078  F061         	movff	Duty@V+1,___ftge@ff1+1
  1983  000A3E  C079  F062         	movff	Duty@V+2,___ftge@ff1+2
  1984  000A42  0E33               	movlw	51
  1985  000A44  6F63               	movwf	___ftge@ff2& (0+255),b
  1986  000A46  0E33               	movlw	51
  1987  000A48  6F64               	movwf	(___ftge@ff2+1)& (0+255),b
  1988  000A4A  0E3F               	movlw	63
  1989  000A4C  6F65               	movwf	(___ftge@ff2+2)& (0+255),b
  1990  000A4E  EC25  F00B         	call	___ftge	;wreg free
  1991  000A52  B0D8               	btfsc	status,0,c
  1992  000A54  D004               	goto	l2352
  1993                           
  1994                           ; BSR set to: 0
  1995                           ;ProyectoControl.c: 265: Transmitir('g');
  1996  000A56  0E67               	movlw	103
  1997  000A58  EC00  F00D         	call	_Transmitir
  1998                           
  1999                           ;ProyectoControl.c: 267: }else if (V<0.76){
  2000  000A5C  0012               	return	
  2001  000A5E                     l2352:
  2002                           
  2003                           ; BSR set to: 0
  2004  000A5E  C077  F060         	movff	Duty@V,___ftge@ff1
  2005  000A62  C078  F061         	movff	Duty@V+1,___ftge@ff1+1
  2006  000A66  C079  F062         	movff	Duty@V+2,___ftge@ff1+2
  2007  000A6A  0E8F               	movlw	143
  2008  000A6C  6F63               	movwf	___ftge@ff2& (0+255),b
  2009  000A6E  0E42               	movlw	66
  2010  000A70  6F64               	movwf	(___ftge@ff2+1)& (0+255),b
  2011  000A72  0E3F               	movlw	63
  2012  000A74  6F65               	movwf	(___ftge@ff2+2)& (0+255),b
  2013  000A76  EC25  F00B         	call	___ftge	;wreg free
  2014  000A7A  B0D8               	btfsc	status,0,c
  2015  000A7C  D004               	goto	l2356
  2016                           
  2017                           ; BSR set to: 0
  2018                           ;ProyectoControl.c: 268: Transmitir('h');
  2019  000A7E  0E68               	movlw	104
  2020  000A80  EC00  F00D         	call	_Transmitir
  2021                           
  2022                           ;ProyectoControl.c: 270: }else if (V<0.82){
  2023  000A84  0012               	return	
  2024  000A86                     l2356:
  2025                           
  2026                           ; BSR set to: 0
  2027  000A86  C077  F060         	movff	Duty@V,___ftge@ff1
  2028  000A8A  C078  F061         	movff	Duty@V+1,___ftge@ff1+1
  2029  000A8E  C079  F062         	movff	Duty@V+2,___ftge@ff1+2
  2030  000A92  0EEC               	movlw	236
  2031  000A94  6F63               	movwf	___ftge@ff2& (0+255),b
  2032  000A96  0E51               	movlw	81
  2033  000A98  6F64               	movwf	(___ftge@ff2+1)& (0+255),b
  2034  000A9A  0E3F               	movlw	63
  2035  000A9C  6F65               	movwf	(___ftge@ff2+2)& (0+255),b
  2036  000A9E  EC25  F00B         	call	___ftge	;wreg free
  2037  000AA2  B0D8               	btfsc	status,0,c
  2038  000AA4  D004               	goto	l2360
  2039                           
  2040                           ; BSR set to: 0
  2041                           ;ProyectoControl.c: 271: Transmitir('i');
  2042  000AA6  0E69               	movlw	105
  2043  000AA8  EC00  F00D         	call	_Transmitir
  2044                           
  2045                           ;ProyectoControl.c: 273: }else if (V<0.88){
  2046  000AAC  0012               	return	
  2047  000AAE                     l2360:
  2048                           
  2049                           ; BSR set to: 0
  2050  000AAE  C077  F060         	movff	Duty@V,___ftge@ff1
  2051  000AB2  C078  F061         	movff	Duty@V+1,___ftge@ff1+1
  2052  000AB6  C079  F062         	movff	Duty@V+2,___ftge@ff1+2
  2053  000ABA  0E48               	movlw	72
  2054  000ABC  6F63               	movwf	___ftge@ff2& (0+255),b
  2055  000ABE  0E61               	movlw	97
  2056  000AC0  6F64               	movwf	(___ftge@ff2+1)& (0+255),b
  2057  000AC2  0E3F               	movlw	63
  2058  000AC4  6F65               	movwf	(___ftge@ff2+2)& (0+255),b
  2059  000AC6  EC25  F00B         	call	___ftge	;wreg free
  2060  000ACA  B0D8               	btfsc	status,0,c
  2061  000ACC  D004               	goto	l2364
  2062                           
  2063                           ; BSR set to: 0
  2064                           ;ProyectoControl.c: 274: Transmitir('j');
  2065  000ACE  0E6A               	movlw	106
  2066  000AD0  EC00  F00D         	call	_Transmitir
  2067                           
  2068                           ;ProyectoControl.c: 276: }else if (V<0.94){
  2069  000AD4  0012               	return	
  2070  000AD6                     l2364:
  2071                           
  2072                           ; BSR set to: 0
  2073  000AD6  C077  F060         	movff	Duty@V,___ftge@ff1
  2074  000ADA  C078  F061         	movff	Duty@V+1,___ftge@ff1+1
  2075  000ADE  C079  F062         	movff	Duty@V+2,___ftge@ff1+2
  2076  000AE2  0EA4               	movlw	164
  2077  000AE4  6F63               	movwf	___ftge@ff2& (0+255),b
  2078  000AE6  0E70               	movlw	112
  2079  000AE8  6F64               	movwf	(___ftge@ff2+1)& (0+255),b
  2080  000AEA  0E3F               	movlw	63
  2081  000AEC  6F65               	movwf	(___ftge@ff2+2)& (0+255),b
  2082  000AEE  EC25  F00B         	call	___ftge	;wreg free
  2083  000AF2  B0D8               	btfsc	status,0,c
  2084  000AF4  D004               	goto	l2368
  2085                           
  2086                           ; BSR set to: 0
  2087                           ;ProyectoControl.c: 277: Transmitir('k');
  2088  000AF6  0E6B               	movlw	107
  2089  000AF8  EC00  F00D         	call	_Transmitir
  2090                           
  2091                           ;ProyectoControl.c: 279: }else {
  2092  000AFC  0012               	return	
  2093  000AFE                     l2368:
  2094                           
  2095                           ; BSR set to: 0
  2096                           ;ProyectoControl.c: 280: Transmitir('m');
  2097  000AFE  0E6D               	movlw	109
  2098  000B00  EC00  F00D         	call	_Transmitir
  2099  000B04  0012               	return	
  2100  000B06                     l2370:
  2101                           
  2102                           ; BSR set to: 0
  2103                           ;ProyectoControl.c: 284: V=V/525;
  2104  000B06  C077  F068         	movff	Duty@V,___ftdiv@f1
  2105  000B0A  C078  F069         	movff	Duty@V+1,___ftdiv@f1+1
  2106  000B0E  C079  F06A         	movff	Duty@V+2,___ftdiv@f1+2
  2107  000B12  0E40               	movlw	64
  2108  000B14  6F6B               	movwf	___ftdiv@f2& (0+255),b
  2109  000B16  0E03               	movlw	3
  2110  000B18  6F6C               	movwf	(___ftdiv@f2+1)& (0+255),b
  2111  000B1A  0E44               	movlw	68
  2112  000B1C  6F6D               	movwf	(___ftdiv@f2+2)& (0+255),b
  2113  000B1E  EC9D  F008         	call	___ftdiv	;wreg free
  2114  000B22  C068  F077         	movff	?___ftdiv,Duty@V
  2115  000B26  C069  F078         	movff	?___ftdiv+1,Duty@V+1
  2116  000B2A  C06A  F079         	movff	?___ftdiv+2,Duty@V+2
  2117                           
  2118                           ;ProyectoControl.c: 285: if(V>-0.4){
  2119  000B2E  0ECD               	movlw	205
  2120  000B30  6F60               	movwf	___ftge@ff1& (0+255),b
  2121  000B32  0ECC               	movlw	204
  2122  000B34  6F61               	movwf	(___ftge@ff1+1)& (0+255),b
  2123  000B36  0EBE               	movlw	190
  2124  000B38  6F62               	movwf	(___ftge@ff1+2)& (0+255),b
  2125  000B3A  C077  F063         	movff	Duty@V,___ftge@ff2
  2126  000B3E  C078  F064         	movff	Duty@V+1,___ftge@ff2+1
  2127  000B42  C079  F065         	movff	Duty@V+2,___ftge@ff2+2
  2128  000B46  EC25  F00B         	call	___ftge	;wreg free
  2129  000B4A  B0D8               	btfsc	status,0,c
  2130  000B4C  D004               	goto	l2374
  2131                           
  2132                           ; BSR set to: 0
  2133                           ;ProyectoControl.c: 286: Transmitir('B');
  2134  000B4E  0E42               	movlw	66
  2135  000B50  EC00  F00D         	call	_Transmitir
  2136                           
  2137                           ;ProyectoControl.c: 288: }else if (V>-0.46){
  2138  000B54  0012               	return	
  2139  000B56                     l2374:
  2140                           
  2141                           ; BSR set to: 0
  2142  000B56  0E85               	movlw	133
  2143  000B58  6F60               	movwf	___ftge@ff1& (0+255),b
  2144  000B5A  0EEB               	movlw	235
  2145  000B5C  6F61               	movwf	(___ftge@ff1+1)& (0+255),b
  2146  000B5E  0EBE               	movlw	190
  2147  000B60  6F62               	movwf	(___ftge@ff1+2)& (0+255),b
  2148  000B62  C077  F063         	movff	Duty@V,___ftge@ff2
  2149  000B66  C078  F064         	movff	Duty@V+1,___ftge@ff2+1
  2150  000B6A  C079  F065         	movff	Duty@V+2,___ftge@ff2+2
  2151  000B6E  EC25  F00B         	call	___ftge	;wreg free
  2152  000B72  B0D8               	btfsc	status,0,c
  2153  000B74  D004               	goto	l2378
  2154                           
  2155                           ; BSR set to: 0
  2156                           ;ProyectoControl.c: 289: Transmitir('C');
  2157  000B76  0E43               	movlw	67
  2158  000B78  EC00  F00D         	call	_Transmitir
  2159                           
  2160                           ;ProyectoControl.c: 291: }else if (V>-0.52){
  2161  000B7C  0012               	return	
  2162  000B7E                     l2378:
  2163                           
  2164                           ; BSR set to: 0
  2165  000B7E  0E1F               	movlw	31
  2166  000B80  6F60               	movwf	___ftge@ff1& (0+255),b
  2167  000B82  0E05               	movlw	5
  2168  000B84  6F61               	movwf	(___ftge@ff1+1)& (0+255),b
  2169  000B86  0EBF               	movlw	191
  2170  000B88  6F62               	movwf	(___ftge@ff1+2)& (0+255),b
  2171  000B8A  C077  F063         	movff	Duty@V,___ftge@ff2
  2172  000B8E  C078  F064         	movff	Duty@V+1,___ftge@ff2+1
  2173  000B92  C079  F065         	movff	Duty@V+2,___ftge@ff2+2
  2174  000B96  EC25  F00B         	call	___ftge	;wreg free
  2175  000B9A  B0D8               	btfsc	status,0,c
  2176  000B9C  D004               	goto	l2382
  2177                           
  2178                           ; BSR set to: 0
  2179                           ;ProyectoControl.c: 292: Transmitir('D');
  2180  000B9E  0E44               	movlw	68
  2181  000BA0  EC00  F00D         	call	_Transmitir
  2182                           
  2183                           ;ProyectoControl.c: 294: }else if (V>-0.58){
  2184  000BA4  0012               	return	
  2185  000BA6                     l2382:
  2186                           
  2187                           ; BSR set to: 0
  2188  000BA6  0E7B               	movlw	123
  2189  000BA8  6F60               	movwf	___ftge@ff1& (0+255),b
  2190  000BAA  0E14               	movlw	20
  2191  000BAC  6F61               	movwf	(___ftge@ff1+1)& (0+255),b
  2192  000BAE  0EBF               	movlw	191
  2193  000BB0  6F62               	movwf	(___ftge@ff1+2)& (0+255),b
  2194  000BB2  C077  F063         	movff	Duty@V,___ftge@ff2
  2195  000BB6  C078  F064         	movff	Duty@V+1,___ftge@ff2+1
  2196  000BBA  C079  F065         	movff	Duty@V+2,___ftge@ff2+2
  2197  000BBE  EC25  F00B         	call	___ftge	;wreg free
  2198  000BC2  B0D8               	btfsc	status,0,c
  2199  000BC4  D004               	goto	l2386
  2200                           
  2201                           ; BSR set to: 0
  2202                           ;ProyectoControl.c: 295: Transmitir('E');
  2203  000BC6  0E45               	movlw	69
  2204  000BC8  EC00  F00D         	call	_Transmitir
  2205                           
  2206                           ;ProyectoControl.c: 297: }else if (V>-0.64){
  2207  000BCC  0012               	return	
  2208  000BCE                     l2386:
  2209                           
  2210                           ; BSR set to: 0
  2211  000BCE  0ED7               	movlw	215
  2212  000BD0  6F60               	movwf	___ftge@ff1& (0+255),b
  2213  000BD2  0E23               	movlw	35
  2214  000BD4  6F61               	movwf	(___ftge@ff1+1)& (0+255),b
  2215  000BD6  0EBF               	movlw	191
  2216  000BD8  6F62               	movwf	(___ftge@ff1+2)& (0+255),b
  2217  000BDA  C077  F063         	movff	Duty@V,___ftge@ff2
  2218  000BDE  C078  F064         	movff	Duty@V+1,___ftge@ff2+1
  2219  000BE2  C079  F065         	movff	Duty@V+2,___ftge@ff2+2
  2220  000BE6  EC25  F00B         	call	___ftge	;wreg free
  2221  000BEA  B0D8               	btfsc	status,0,c
  2222  000BEC  D004               	goto	l2390
  2223                           
  2224                           ; BSR set to: 0
  2225                           ;ProyectoControl.c: 298: Transmitir('F');
  2226  000BEE  0E46               	movlw	70
  2227  000BF0  EC00  F00D         	call	_Transmitir
  2228                           
  2229                           ;ProyectoControl.c: 300: }else if (V>-0.70){
  2230  000BF4  0012               	return	
  2231  000BF6                     l2390:
  2232                           
  2233                           ; BSR set to: 0
  2234  000BF6  0E33               	movlw	51
  2235  000BF8  6F60               	movwf	___ftge@ff1& (0+255),b
  2236  000BFA  0E33               	movlw	51
  2237  000BFC  6F61               	movwf	(___ftge@ff1+1)& (0+255),b
  2238  000BFE  0EBF               	movlw	191
  2239  000C00  6F62               	movwf	(___ftge@ff1+2)& (0+255),b
  2240  000C02  C077  F063         	movff	Duty@V,___ftge@ff2
  2241  000C06  C078  F064         	movff	Duty@V+1,___ftge@ff2+1
  2242  000C0A  C079  F065         	movff	Duty@V+2,___ftge@ff2+2
  2243  000C0E  EC25  F00B         	call	___ftge	;wreg free
  2244  000C12  B0D8               	btfsc	status,0,c
  2245  000C14  D004               	goto	l2394
  2246                           
  2247                           ; BSR set to: 0
  2248                           ;ProyectoControl.c: 301: Transmitir('G');
  2249  000C16  0E47               	movlw	71
  2250  000C18  EC00  F00D         	call	_Transmitir
  2251                           
  2252                           ;ProyectoControl.c: 303: }else if (V>-0.76){
  2253  000C1C  0012               	return	
  2254  000C1E                     l2394:
  2255                           
  2256                           ; BSR set to: 0
  2257  000C1E  0E8F               	movlw	143
  2258  000C20  6F60               	movwf	___ftge@ff1& (0+255),b
  2259  000C22  0E42               	movlw	66
  2260  000C24  6F61               	movwf	(___ftge@ff1+1)& (0+255),b
  2261  000C26  0EBF               	movlw	191
  2262  000C28  6F62               	movwf	(___ftge@ff1+2)& (0+255),b
  2263  000C2A  C077  F063         	movff	Duty@V,___ftge@ff2
  2264  000C2E  C078  F064         	movff	Duty@V+1,___ftge@ff2+1
  2265  000C32  C079  F065         	movff	Duty@V+2,___ftge@ff2+2
  2266  000C36  EC25  F00B         	call	___ftge	;wreg free
  2267  000C3A  B0D8               	btfsc	status,0,c
  2268  000C3C  D004               	goto	l2398
  2269                           
  2270                           ; BSR set to: 0
  2271                           ;ProyectoControl.c: 304: Transmitir('H');
  2272  000C3E  0E48               	movlw	72
  2273  000C40  EC00  F00D         	call	_Transmitir
  2274                           
  2275                           ;ProyectoControl.c: 306: }else if (V>-0.82){
  2276  000C44  0012               	return	
  2277  000C46                     l2398:
  2278                           
  2279                           ; BSR set to: 0
  2280  000C46  0EEC               	movlw	236
  2281  000C48  6F60               	movwf	___ftge@ff1& (0+255),b
  2282  000C4A  0E51               	movlw	81
  2283  000C4C  6F61               	movwf	(___ftge@ff1+1)& (0+255),b
  2284  000C4E  0EBF               	movlw	191
  2285  000C50  6F62               	movwf	(___ftge@ff1+2)& (0+255),b
  2286  000C52  C077  F063         	movff	Duty@V,___ftge@ff2
  2287  000C56  C078  F064         	movff	Duty@V+1,___ftge@ff2+1
  2288  000C5A  C079  F065         	movff	Duty@V+2,___ftge@ff2+2
  2289  000C5E  EC25  F00B         	call	___ftge	;wreg free
  2290  000C62  B0D8               	btfsc	status,0,c
  2291  000C64  D004               	goto	l2402
  2292                           
  2293                           ; BSR set to: 0
  2294                           ;ProyectoControl.c: 307: Transmitir('I');
  2295  000C66  0E49               	movlw	73
  2296  000C68  EC00  F00D         	call	_Transmitir
  2297                           
  2298                           ;ProyectoControl.c: 309: }else if (V>-0.88){
  2299  000C6C  0012               	return	
  2300  000C6E                     l2402:
  2301                           
  2302                           ; BSR set to: 0
  2303  000C6E  0E48               	movlw	72
  2304  000C70  6F60               	movwf	___ftge@ff1& (0+255),b
  2305  000C72  0E61               	movlw	97
  2306  000C74  6F61               	movwf	(___ftge@ff1+1)& (0+255),b
  2307  000C76  0EBF               	movlw	191
  2308  000C78  6F62               	movwf	(___ftge@ff1+2)& (0+255),b
  2309  000C7A  C077  F063         	movff	Duty@V,___ftge@ff2
  2310  000C7E  C078  F064         	movff	Duty@V+1,___ftge@ff2+1
  2311  000C82  C079  F065         	movff	Duty@V+2,___ftge@ff2+2
  2312  000C86  EC25  F00B         	call	___ftge	;wreg free
  2313  000C8A  B0D8               	btfsc	status,0,c
  2314  000C8C  D004               	goto	l2406
  2315                           
  2316                           ; BSR set to: 0
  2317                           ;ProyectoControl.c: 310: Transmitir('J');
  2318  000C8E  0E4A               	movlw	74
  2319  000C90  EC00  F00D         	call	_Transmitir
  2320                           
  2321                           ;ProyectoControl.c: 312: }else if (V>-0.94){
  2322  000C94  0012               	return	
  2323  000C96                     l2406:
  2324                           
  2325                           ; BSR set to: 0
  2326  000C96  0EA4               	movlw	164
  2327  000C98  6F60               	movwf	___ftge@ff1& (0+255),b
  2328  000C9A  0E70               	movlw	112
  2329  000C9C  6F61               	movwf	(___ftge@ff1+1)& (0+255),b
  2330  000C9E  0EBF               	movlw	191
  2331  000CA0  6F62               	movwf	(___ftge@ff1+2)& (0+255),b
  2332  000CA2  C077  F063         	movff	Duty@V,___ftge@ff2
  2333  000CA6  C078  F064         	movff	Duty@V+1,___ftge@ff2+1
  2334  000CAA  C079  F065         	movff	Duty@V+2,___ftge@ff2+2
  2335  000CAE  EC25  F00B         	call	___ftge	;wreg free
  2336  000CB2  B0D8               	btfsc	status,0,c
  2337  000CB4  D004               	goto	l2410
  2338                           
  2339                           ; BSR set to: 0
  2340                           ;ProyectoControl.c: 313: Transmitir('K');
  2341  000CB6  0E4B               	movlw	75
  2342  000CB8  EC00  F00D         	call	_Transmitir
  2343                           
  2344                           ;ProyectoControl.c: 316: }else {
  2345  000CBC  0012               	return	
  2346  000CBE                     l2410:
  2347                           
  2348                           ; BSR set to: 0
  2349                           ;ProyectoControl.c: 317: Transmitir('M');
  2350  000CBE  0E4D               	movlw	77
  2351  000CC0  EC00  F00D         	call	_Transmitir
  2352  000CC4  0012               	return		;funcret
  2353  000CC6                     __end_of_Duty:
  2354                           	callstack 0
  2355                           
  2356 ;; *************** function ___ftge *****************
  2357 ;; Defined at:
  2358 ;;		line 4 in file "C:\Program Files\Microchip\xc8\v2.32\pic\sources\c90\common\ftge.c"
  2359 ;; Parameters:    Size  Location     Type
  2360 ;;  ff1             3    0[BANK0 ] float 
  2361 ;;  ff2             3    3[BANK0 ] float 
  2362 ;; Auto vars:     Size  Location     Type
  2363 ;;		None
  2364 ;; Return value:  Size  Location     Type
  2365 ;;		None               void
  2366 ;; Registers used:
  2367 ;;		wreg, status,2, status,0
  2368 ;; Tracked objects:
  2369 ;;		On entry : 3F/0
  2370 ;;		On exit  : 3F/0
  2371 ;;		Unchanged: 0/0
  2372 ;; Data sizes:     COMRAM   BANK0   BANK1   BANK2   BANK3   BANK4   BANK5   BANK6   BANK7
  2373 ;;      Params:         0       6       0       0       0       0       0       0       0
  2374 ;;      Locals:         0       0       0       0       0       0       0       0       0
  2375 ;;      Temps:          0       3       0       0       0       0       0       0       0
  2376 ;;      Totals:         0       9       0       0       0       0       0       0       0
  2377 ;;Total ram usage:        9 bytes
  2378 ;; Hardware stack levels used: 1
  2379 ;; Hardware stack levels required when called: 5
  2380 ;; This function calls:
  2381 ;;		Nothing
  2382 ;; This function is called by:
  2383 ;;		_Duty
  2384 ;; This function uses a non-reentrant model
  2385 ;;
  2386                           
  2387                           	psect	text8
  2388  00164A                     __ptext8:
  2389                           	callstack 0
  2390  00164A                     ___ftge:
  2391                           	callstack 24
  2392                           
  2393                           ; BSR set to: 0
  2394                           
  2395                           ;incstack = 0
  2396  00164A  AF62               	btfss	(___ftge@ff1+2)& (0+255),7,b
  2397  00164C  D00F               	goto	l2152
  2398                           
  2399                           ; BSR set to: 0
  2400  00164E  0E00               	movlw	0
  2401  001650  6F66               	movwf	??___ftge& (0+255),b
  2402  001652  0E00               	movlw	0
  2403  001654  6F67               	movwf	(??___ftge+1)& (0+255),b
  2404  001656  0E80               	movlw	128
  2405  001658  6F68               	movwf	(??___ftge+2)& (0+255),b
  2406  00165A  5160               	movf	___ftge@ff1& (0+255),w,b
  2407  00165C  5D66               	subwf	??___ftge& (0+255),w,b
  2408  00165E  6F60               	movwf	___ftge@ff1& (0+255),b
  2409  001660  5161               	movf	(___ftge@ff1+1)& (0+255),w,b
  2410  001662  5967               	subwfb	(??___ftge+1)& (0+255),w,b
  2411  001664  6F61               	movwf	(___ftge@ff1+1)& (0+255),b
  2412  001666  5162               	movf	(___ftge@ff1+2)& (0+255),w,b
  2413  001668  5968               	subwfb	(??___ftge+2)& (0+255),w,b
  2414  00166A  6F62               	movwf	(___ftge@ff1+2)& (0+255),b
  2415  00166C                     l2152:
  2416                           
  2417                           ; BSR set to: 0
  2418  00166C  AF65               	btfss	(___ftge@ff2+2)& (0+255),7,b
  2419  00166E  D00F               	goto	l2156
  2420                           
  2421                           ; BSR set to: 0
  2422  001670  0E00               	movlw	0
  2423  001672  6F66               	movwf	??___ftge& (0+255),b
  2424  001674  0E00               	movlw	0
  2425  001676  6F67               	movwf	(??___ftge+1)& (0+255),b
  2426  001678  0E80               	movlw	128
  2427  00167A  6F68               	movwf	(??___ftge+2)& (0+255),b
  2428  00167C  5163               	movf	___ftge@ff2& (0+255),w,b
  2429  00167E  5D66               	subwf	??___ftge& (0+255),w,b
  2430  001680  6F63               	movwf	___ftge@ff2& (0+255),b
  2431  001682  5164               	movf	(___ftge@ff2+1)& (0+255),w,b
  2432  001684  5967               	subwfb	(??___ftge+1)& (0+255),w,b
  2433  001686  6F64               	movwf	(___ftge@ff2+1)& (0+255),b
  2434  001688  5165               	movf	(___ftge@ff2+2)& (0+255),w,b
  2435  00168A  5968               	subwfb	(??___ftge+2)& (0+255),w,b
  2436  00168C  6F65               	movwf	(___ftge@ff2+2)& (0+255),b
  2437  00168E                     l2156:
  2438                           
  2439                           ; BSR set to: 0
  2440  00168E  0E00               	movlw	0
  2441  001690  1B60               	xorwf	___ftge@ff1& (0+255),f,b
  2442  001692  0E00               	movlw	0
  2443  001694  1B61               	xorwf	(___ftge@ff1+1)& (0+255),f,b
  2444  001696  0E80               	movlw	128
  2445  001698  1B62               	xorwf	(___ftge@ff1+2)& (0+255),f,b
  2446                           
  2447                           ; BSR set to: 0
  2448  00169A  0E00               	movlw	0
  2449  00169C  1B63               	xorwf	___ftge@ff2& (0+255),f,b
  2450  00169E  0E00               	movlw	0
  2451  0016A0  1B64               	xorwf	(___ftge@ff2+1)& (0+255),f,b
  2452  0016A2  0E80               	movlw	128
  2453  0016A4  1B65               	xorwf	(___ftge@ff2+2)& (0+255),f,b
  2454  0016A6  5163               	movf	___ftge@ff2& (0+255),w,b
  2455  0016A8  5D60               	subwf	___ftge@ff1& (0+255),w,b
  2456  0016AA  5164               	movf	(___ftge@ff2+1)& (0+255),w,b
  2457  0016AC  5961               	subwfb	(___ftge@ff1+1)& (0+255),w,b
  2458  0016AE  5165               	movf	(___ftge@ff2+2)& (0+255),w,b
  2459  0016B0  5962               	subwfb	(___ftge@ff1+2)& (0+255),w,b
  2460  0016B2  B0D8               	btfsc	status,0,c
  2461  0016B4  D002               	goto	l2162
  2462                           
  2463                           ; BSR set to: 0
  2464  0016B6  90D8               	bcf	status,0,c
  2465  0016B8  0012               	return	
  2466  0016BA                     l2162:
  2467                           
  2468                           ; BSR set to: 0
  2469  0016BA  80D8               	bsf	status,0,c
  2470                           
  2471                           ; BSR set to: 0
  2472  0016BC  0012               	return		;funcret
  2473  0016BE                     __end_of___ftge:
  2474                           	callstack 0
  2475                           
  2476 ;; *************** function ___ftdiv *****************
  2477 ;; Defined at:
  2478 ;;		line 54 in file "C:\Program Files\Microchip\xc8\v2.32\pic\sources\c90\common\ftdiv.c"
  2479 ;; Parameters:    Size  Location     Type
  2480 ;;  f1              3    8[BANK0 ] float 
  2481 ;;  f2              3   11[BANK0 ] float 
  2482 ;; Auto vars:     Size  Location     Type
  2483 ;;  f3              3   18[BANK0 ] float 
  2484 ;;  sign            1   22[BANK0 ] unsigned char 
  2485 ;;  exp             1   21[BANK0 ] unsigned char 
  2486 ;;  cntr            1   17[BANK0 ] unsigned char 
  2487 ;; Return value:  Size  Location     Type
  2488 ;;                  3    8[BANK0 ] float 
  2489 ;; Registers used:
  2490 ;;		wreg, status,2, status,0, cstack
  2491 ;; Tracked objects:
  2492 ;;		On entry : 3F/0
  2493 ;;		On exit  : 3F/0
  2494 ;;		Unchanged: 0/0
  2495 ;; Data sizes:     COMRAM   BANK0   BANK1   BANK2   BANK3   BANK4   BANK5   BANK6   BANK7
  2496 ;;      Params:         0       6       0       0       0       0       0       0       0
  2497 ;;      Locals:         0       6       0       0       0       0       0       0       0
  2498 ;;      Temps:          0       3       0       0       0       0       0       0       0
  2499 ;;      Totals:         0      15       0       0       0       0       0       0       0
  2500 ;;Total ram usage:       15 bytes
  2501 ;; Hardware stack levels used: 1
  2502 ;; Hardware stack levels required when called: 6
  2503 ;; This function calls:
  2504 ;;		___ftpack
  2505 ;; This function is called by:
  2506 ;;		_Duty
  2507 ;; This function uses a non-reentrant model
  2508 ;;
  2509                           
  2510                           	psect	text9
  2511  00113A                     __ptext9:
  2512                           	callstack 0
  2513  00113A                     ___ftdiv:
  2514                           	callstack 23
  2515                           
  2516                           ; BSR set to: 0
  2517                           
  2518                           ; BSR set to: 0
  2519                           ;incstack = 0
  2520  00113A  C06A  F06E         	movff	___ftdiv@f1+2,??___ftdiv
  2521  00113E  6B6F               	clrf	(??___ftdiv+1)& (0+255),b
  2522  001140  6B70               	clrf	(??___ftdiv+2)& (0+255),b
  2523  001142  3569               	rlcf	(___ftdiv@f1+1)& (0+255),w,b
  2524  001144  376E               	rlcf	??___ftdiv& (0+255),f,b
  2525  001146  E301               	bnc	u1501
  2526  001148  816F               	bsf	(??___ftdiv+1)& (0+255),0,b
  2527  00114A                     u1501:
  2528  00114A  516E               	movf	??___ftdiv& (0+255),w,b
  2529  00114C  6F75               	movwf	___ftdiv@exp& (0+255),b
  2530  00114E  5175               	movf	___ftdiv@exp& (0+255),w,b
  2531  001150  A4D8               	btfss	status,2,c
  2532  001152  D007               	goto	l2060
  2533                           
  2534                           ; BSR set to: 0
  2535  001154  0E00               	movlw	0
  2536  001156  6F68               	movwf	?___ftdiv& (0+255),b
  2537  001158  0E00               	movlw	0
  2538  00115A  6F69               	movwf	(?___ftdiv+1)& (0+255),b
  2539  00115C  0E00               	movlw	0
  2540  00115E  6F6A               	movwf	(?___ftdiv+2)& (0+255),b
  2541  001160  0012               	return	
  2542  001162                     l2060:
  2543                           
  2544                           ; BSR set to: 0
  2545  001162  C06D  F06E         	movff	___ftdiv@f2+2,??___ftdiv
  2546  001166  6B6F               	clrf	(??___ftdiv+1)& (0+255),b
  2547  001168  6B70               	clrf	(??___ftdiv+2)& (0+255),b
  2548  00116A  356C               	rlcf	(___ftdiv@f2+1)& (0+255),w,b
  2549  00116C  376E               	rlcf	??___ftdiv& (0+255),f,b
  2550  00116E  E301               	bnc	u1521
  2551  001170  816F               	bsf	(??___ftdiv+1)& (0+255),0,b
  2552  001172                     u1521:
  2553  001172  516E               	movf	??___ftdiv& (0+255),w,b
  2554  001174  6F76               	movwf	___ftdiv@sign& (0+255),b
  2555  001176  5176               	movf	___ftdiv@sign& (0+255),w,b
  2556  001178  A4D8               	btfss	status,2,c
  2557  00117A  D007               	goto	l2066
  2558                           
  2559                           ; BSR set to: 0
  2560  00117C  0E00               	movlw	0
  2561  00117E  6F68               	movwf	?___ftdiv& (0+255),b
  2562  001180  0E00               	movlw	0
  2563  001182  6F69               	movwf	(?___ftdiv+1)& (0+255),b
  2564  001184  0E00               	movlw	0
  2565  001186  6F6A               	movwf	(?___ftdiv+2)& (0+255),b
  2566  001188  0012               	return	
  2567  00118A                     l2066:
  2568                           
  2569                           ; BSR set to: 0
  2570  00118A  0E00               	movlw	0
  2571  00118C  6F72               	movwf	___ftdiv@f3& (0+255),b
  2572  00118E  0E00               	movlw	0
  2573  001190  6F73               	movwf	(___ftdiv@f3+1)& (0+255),b
  2574  001192  0E00               	movlw	0
  2575  001194  6F74               	movwf	(___ftdiv@f3+2)& (0+255),b
  2576                           
  2577                           ; BSR set to: 0
  2578  001196  5176               	movf	___ftdiv@sign& (0+255),w,b
  2579  001198  0F89               	addlw	137
  2580  00119A  5F75               	subwf	___ftdiv@exp& (0+255),f,b
  2581                           
  2582                           ; BSR set to: 0
  2583  00119C  C06A  F076         	movff	___ftdiv@f1+2,___ftdiv@sign
  2584                           
  2585                           ; BSR set to: 0
  2586  0011A0  516D               	movf	(___ftdiv@f2+2)& (0+255),w,b
  2587  0011A2  1B76               	xorwf	___ftdiv@sign& (0+255),f,b
  2588                           
  2589                           ; BSR set to: 0
  2590  0011A4  0E80               	movlw	128
  2591  0011A6  1776               	andwf	___ftdiv@sign& (0+255),f,b
  2592                           
  2593                           ; BSR set to: 0
  2594  0011A8  8F69               	bsf	(___ftdiv@f1+1)& (0+255),7,b
  2595                           
  2596                           ; BSR set to: 0
  2597  0011AA  0EFF               	movlw	255
  2598  0011AC  1768               	andwf	___ftdiv@f1& (0+255),f,b
  2599  0011AE  0EFF               	movlw	255
  2600  0011B0  1769               	andwf	(___ftdiv@f1+1)& (0+255),f,b
  2601  0011B2  0E00               	movlw	0
  2602  0011B4  176A               	andwf	(___ftdiv@f1+2)& (0+255),f,b
  2603                           
  2604                           ; BSR set to: 0
  2605  0011B6  8F6C               	bsf	(___ftdiv@f2+1)& (0+255),7,b
  2606                           
  2607                           ; BSR set to: 0
  2608  0011B8  0EFF               	movlw	255
  2609  0011BA  176B               	andwf	___ftdiv@f2& (0+255),f,b
  2610  0011BC  0EFF               	movlw	255
  2611  0011BE  176C               	andwf	(___ftdiv@f2+1)& (0+255),f,b
  2612  0011C0  0E00               	movlw	0
  2613  0011C2  176D               	andwf	(___ftdiv@f2+2)& (0+255),f,b
  2614                           
  2615                           ; BSR set to: 0
  2616  0011C4  0E18               	movlw	24
  2617  0011C6  6F71               	movwf	___ftdiv@cntr& (0+255),b
  2618  0011C8                     l2086:
  2619                           
  2620                           ; BSR set to: 0
  2621  0011C8  90D8               	bcf	status,0,c
  2622  0011CA  3772               	rlcf	___ftdiv@f3& (0+255),f,b
  2623  0011CC  3773               	rlcf	(___ftdiv@f3+1)& (0+255),f,b
  2624  0011CE  3774               	rlcf	(___ftdiv@f3+2)& (0+255),f,b
  2625                           
  2626                           ; BSR set to: 0
  2627  0011D0  516B               	movf	___ftdiv@f2& (0+255),w,b
  2628  0011D2  5D68               	subwf	___ftdiv@f1& (0+255),w,b
  2629  0011D4  516C               	movf	(___ftdiv@f2+1)& (0+255),w,b
  2630  0011D6  5969               	subwfb	(___ftdiv@f1+1)& (0+255),w,b
  2631  0011D8  516D               	movf	(___ftdiv@f2+2)& (0+255),w,b
  2632  0011DA  596A               	subwfb	(___ftdiv@f1+2)& (0+255),w,b
  2633  0011DC  A0D8               	btfss	status,0,c
  2634  0011DE  D007               	goto	l666
  2635                           
  2636                           ; BSR set to: 0
  2637  0011E0  516B               	movf	___ftdiv@f2& (0+255),w,b
  2638  0011E2  5F68               	subwf	___ftdiv@f1& (0+255),f,b
  2639  0011E4  516C               	movf	(___ftdiv@f2+1)& (0+255),w,b
  2640  0011E6  5B69               	subwfb	(___ftdiv@f1+1)& (0+255),f,b
  2641  0011E8  516D               	movf	(___ftdiv@f2+2)& (0+255),w,b
  2642  0011EA  5B6A               	subwfb	(___ftdiv@f1+2)& (0+255),f,b
  2643                           
  2644                           ; BSR set to: 0
  2645  0011EC  8172               	bsf	___ftdiv@f3& (0+255),0,b
  2646  0011EE                     l666:
  2647                           
  2648                           ; BSR set to: 0
  2649  0011EE  90D8               	bcf	status,0,c
  2650  0011F0  3768               	rlcf	___ftdiv@f1& (0+255),f,b
  2651  0011F2  3769               	rlcf	(___ftdiv@f1+1)& (0+255),f,b
  2652  0011F4  376A               	rlcf	(___ftdiv@f1+2)& (0+255),f,b
  2653                           
  2654                           ; BSR set to: 0
  2655  0011F6  2F71               	decfsz	___ftdiv@cntr& (0+255),f,b
  2656  0011F8  D7E7               	goto	l2086
  2657                           
  2658                           ; BSR set to: 0
  2659  0011FA  C072  F060         	movff	___ftdiv@f3,___ftpack@arg
  2660  0011FE  C073  F061         	movff	___ftdiv@f3+1,___ftpack@arg+1
  2661  001202  C074  F062         	movff	___ftdiv@f3+2,___ftpack@arg+2
  2662  001206  C075  F063         	movff	___ftdiv@exp,___ftpack@exp
  2663  00120A  C076  F064         	movff	___ftdiv@sign,___ftpack@sign
  2664  00120E  ECD3  F009         	call	___ftpack	;wreg free
  2665  001212  C060  F068         	movff	?___ftpack,?___ftdiv
  2666  001216  C061  F069         	movff	?___ftpack+1,?___ftdiv+1
  2667  00121A  C062  F06A         	movff	?___ftpack+2,?___ftdiv+2
  2668                           
  2669                           ; BSR set to: 0
  2670  00121E  0012               	return		;funcret
  2671  001220                     __end_of___ftdiv:
  2672                           	callstack 0
  2673                           
  2674 ;; *************** function ___ftpack *****************
  2675 ;; Defined at:
  2676 ;;		line 62 in file "C:\Program Files\Microchip\xc8\v2.32\pic\sources\c90\common\float.c"
  2677 ;; Parameters:    Size  Location     Type
  2678 ;;  arg             3    0[BANK0 ] unsigned um
  2679 ;;  exp             1    3[BANK0 ] unsigned char 
  2680 ;;  sign            1    4[BANK0 ] unsigned char 
  2681 ;; Auto vars:     Size  Location     Type
  2682 ;;		None
  2683 ;; Return value:  Size  Location     Type
  2684 ;;                  3    0[BANK0 ] float 
  2685 ;; Registers used:
  2686 ;;		wreg, status,2, status,0
  2687 ;; Tracked objects:
  2688 ;;		On entry : 3F/0
  2689 ;;		On exit  : 3F/0
  2690 ;;		Unchanged: 0/0
  2691 ;; Data sizes:     COMRAM   BANK0   BANK1   BANK2   BANK3   BANK4   BANK5   BANK6   BANK7
  2692 ;;      Params:         0       5       0       0       0       0       0       0       0
  2693 ;;      Locals:         0       0       0       0       0       0       0       0       0
  2694 ;;      Temps:          0       3       0       0       0       0       0       0       0
  2695 ;;      Totals:         0       8       0       0       0       0       0       0       0
  2696 ;;Total ram usage:        8 bytes
  2697 ;; Hardware stack levels used: 1
  2698 ;; Hardware stack levels required when called: 5
  2699 ;; This function calls:
  2700 ;;		Nothing
  2701 ;; This function is called by:
  2702 ;;		___ftadd
  2703 ;;		___ftdiv
  2704 ;;		___lwtoft
  2705 ;; This function uses a non-reentrant model
  2706 ;;
  2707                           
  2708                           	psect	text10
  2709  0013A6                     __ptext10:
  2710                           	callstack 0
  2711  0013A6                     ___ftpack:
  2712                           	callstack 24
  2713                           
  2714                           ; BSR set to: 0
  2715                           
  2716                           ; BSR set to: 0
  2717                           ;incstack = 0
  2718  0013A6  5163               	movf	___ftpack@exp& (0+255),w,b
  2719  0013A8  B4D8               	btfsc	status,2,c
  2720  0013AA  D005               	goto	u1110
  2721                           
  2722                           ; BSR set to: 0
  2723  0013AC  5160               	movf	___ftpack@arg& (0+255),w,b
  2724  0013AE  1161               	iorwf	(___ftpack@arg+1)& (0+255),w,b
  2725  0013B0  1162               	iorwf	(___ftpack@arg+2)& (0+255),w,b
  2726  0013B2  A4D8               	btfss	status,2,c
  2727  0013B4  D00C               	goto	l1888
  2728  0013B6                     u1110:
  2729                           
  2730                           ; BSR set to: 0
  2731  0013B6  0E00               	movlw	0
  2732  0013B8  6F60               	movwf	?___ftpack& (0+255),b
  2733  0013BA  0E00               	movlw	0
  2734  0013BC  6F61               	movwf	(?___ftpack+1)& (0+255),b
  2735  0013BE  0E00               	movlw	0
  2736  0013C0  6F62               	movwf	(?___ftpack+2)& (0+255),b
  2737  0013C2  0012               	return	
  2738  0013C4                     l1886:
  2739                           
  2740                           ; BSR set to: 0
  2741  0013C4  2B63               	incf	___ftpack@exp& (0+255),f,b
  2742  0013C6  90D8               	bcf	status,0,c
  2743  0013C8  3362               	rrcf	(___ftpack@arg+2)& (0+255),f,b
  2744  0013CA  3361               	rrcf	(___ftpack@arg+1)& (0+255),f,b
  2745  0013CC  3360               	rrcf	___ftpack@arg& (0+255),f,b
  2746  0013CE                     l1888:
  2747                           
  2748                           ; BSR set to: 0
  2749  0013CE  0E00               	movlw	0
  2750  0013D0  1560               	andwf	___ftpack@arg& (0+255),w,b
  2751  0013D2  6F65               	movwf	??___ftpack& (0+255),b
  2752  0013D4  0E00               	movlw	0
  2753  0013D6  1561               	andwf	(___ftpack@arg+1)& (0+255),w,b
  2754  0013D8  6F66               	movwf	(??___ftpack+1)& (0+255),b
  2755  0013DA  0EFE               	movlw	254
  2756  0013DC  1562               	andwf	(___ftpack@arg+2)& (0+255),w,b
  2757  0013DE  6F67               	movwf	(??___ftpack+2)& (0+255),b
  2758  0013E0  5165               	movf	??___ftpack& (0+255),w,b
  2759  0013E2  1166               	iorwf	(??___ftpack+1)& (0+255),w,b
  2760  0013E4  1167               	iorwf	(??___ftpack+2)& (0+255),w,b
  2761  0013E6  B4D8               	btfsc	status,2,c
  2762  0013E8  D00C               	goto	l1894
  2763  0013EA  D7EC               	goto	l1886
  2764  0013EC                     l1890:
  2765                           
  2766                           ; BSR set to: 0
  2767  0013EC  2B63               	incf	___ftpack@exp& (0+255),f,b
  2768                           
  2769                           ; BSR set to: 0
  2770  0013EE  0E01               	movlw	1
  2771  0013F0  2760               	addwf	___ftpack@arg& (0+255),f,b
  2772  0013F2  0E00               	movlw	0
  2773  0013F4  2361               	addwfc	(___ftpack@arg+1)& (0+255),f,b
  2774  0013F6  0E00               	movlw	0
  2775  0013F8  2362               	addwfc	(___ftpack@arg+2)& (0+255),f,b
  2776  0013FA  90D8               	bcf	status,0,c
  2777  0013FC  3362               	rrcf	(___ftpack@arg+2)& (0+255),f,b
  2778  0013FE  3361               	rrcf	(___ftpack@arg+1)& (0+255),f,b
  2779  001400  3360               	rrcf	___ftpack@arg& (0+255),f,b
  2780  001402                     l1894:
  2781                           
  2782                           ; BSR set to: 0
  2783  001402  0E00               	movlw	0
  2784  001404  1560               	andwf	___ftpack@arg& (0+255),w,b
  2785  001406  6F65               	movwf	??___ftpack& (0+255),b
  2786  001408  0E00               	movlw	0
  2787  00140A  1561               	andwf	(___ftpack@arg+1)& (0+255),w,b
  2788  00140C  6F66               	movwf	(??___ftpack+1)& (0+255),b
  2789  00140E  0EFF               	movlw	255
  2790  001410  1562               	andwf	(___ftpack@arg+2)& (0+255),w,b
  2791  001412  6F67               	movwf	(??___ftpack+2)& (0+255),b
  2792  001414  5165               	movf	??___ftpack& (0+255),w,b
  2793  001416  1166               	iorwf	(??___ftpack+1)& (0+255),w,b
  2794  001418  1167               	iorwf	(??___ftpack+2)& (0+255),w,b
  2795  00141A  B4D8               	btfsc	status,2,c
  2796  00141C  D006               	goto	l1898
  2797  00141E  D7E6               	goto	l1890
  2798  001420                     l1896:
  2799                           
  2800                           ; BSR set to: 0
  2801  001420  0763               	decf	___ftpack@exp& (0+255),f,b
  2802  001422  90D8               	bcf	status,0,c
  2803  001424  3760               	rlcf	___ftpack@arg& (0+255),f,b
  2804  001426  3761               	rlcf	(___ftpack@arg+1)& (0+255),f,b
  2805  001428  3762               	rlcf	(___ftpack@arg+2)& (0+255),f,b
  2806  00142A                     l1898:
  2807                           
  2808                           ; BSR set to: 0
  2809  00142A  BF61               	btfsc	(___ftpack@arg+1)& (0+255),7,b
  2810  00142C  D003               	goto	u1150
  2811                           
  2812                           ; BSR set to: 0
  2813  00142E  0E02               	movlw	2
  2814  001430  6163               	cpfslt	___ftpack@exp& (0+255),b
  2815  001432  D7F6               	goto	l1896
  2816  001434                     u1150:
  2817                           
  2818                           ; BSR set to: 0
  2819  001434  A163               	btfss	___ftpack@exp& (0+255),0,b
  2820                           
  2821                           ; BSR set to: 0
  2822  001436  9F61               	bcf	(___ftpack@arg+1)& (0+255),7,b
  2823                           
  2824                           ; BSR set to: 0
  2825  001438  90D8               	bcf	status,0,c
  2826  00143A  3363               	rrcf	___ftpack@exp& (0+255),f,b
  2827  00143C  5163               	movf	___ftpack@exp& (0+255),w,b
  2828  00143E  1362               	iorwf	(___ftpack@arg+2)& (0+255),f,b
  2829                           
  2830                           ; BSR set to: 0
  2831  001440  5164               	movf	___ftpack@sign& (0+255),w,b
  2832  001442  A4D8               	btfss	status,2,c
  2833                           
  2834                           ; BSR set to: 0
  2835  001444  8F62               	bsf	(___ftpack@arg+2)& (0+255),7,b
  2836                           
  2837                           ; BSR set to: 0
  2838  001446  C060  F060         	movff	___ftpack@arg,?___ftpack
  2839  00144A  C061  F061         	movff	___ftpack@arg+1,?___ftpack+1
  2840  00144E  C062  F062         	movff	___ftpack@arg+2,?___ftpack+2
  2841                           
  2842                           ; BSR set to: 0
  2843  001452  0012               	return		;funcret
  2844  001454                     __end_of___ftpack:
  2845                           	callstack 0
  2846                           
  2847 ;; *************** function _Transmitir *****************
  2848 ;; Defined at:
  2849 ;;		line 172 in file "ProyectoControl.c"
  2850 ;; Parameters:    Size  Location     Type
  2851 ;;  BufferT         1    wreg     unsigned char 
  2852 ;; Auto vars:     Size  Location     Type
  2853 ;;  BufferT         1    0[BANK0 ] unsigned char 
  2854 ;; Return value:  Size  Location     Type
  2855 ;;                  1    wreg      void 
  2856 ;; Registers used:
  2857 ;;		wreg
  2858 ;; Tracked objects:
  2859 ;;		On entry : 3F/0
  2860 ;;		On exit  : 0/0
  2861 ;;		Unchanged: 0/0
  2862 ;; Data sizes:     COMRAM   BANK0   BANK1   BANK2   BANK3   BANK4   BANK5   BANK6   BANK7
  2863 ;;      Params:         0       0       0       0       0       0       0       0       0
  2864 ;;      Locals:         0       1       0       0       0       0       0       0       0
  2865 ;;      Temps:          0       0       0       0       0       0       0       0       0
  2866 ;;      Totals:         0       1       0       0       0       0       0       0       0
  2867 ;;Total ram usage:        1 bytes
  2868 ;; Hardware stack levels used: 1
  2869 ;; Hardware stack levels required when called: 5
  2870 ;; This function calls:
  2871 ;;		Nothing
  2872 ;; This function is called by:
  2873 ;;		_Duty
  2874 ;; This function uses a non-reentrant model
  2875 ;;
  2876                           
  2877                           	psect	text11
  2878  001A00                     __ptext11:
  2879                           	callstack 0
  2880  001A00                     _Transmitir:
  2881                           	callstack 24
  2882                           
  2883                           ; BSR set to: 0
  2884                           ;incstack = 0
  2885                           ;Transmitir@BufferT stored from wreg
  2886  001A00  6F60               	movwf	Transmitir@BufferT& (0+255),b
  2887  001A02                     
  2888                           ;ProyectoControl.c: 173: while(TRMT==0);
  2889  001A02  A2AC               	btfss	4012,1,c	;volatile
  2890  001A04  D7FE               	goto	l1980
  2891                           
  2892                           ;ProyectoControl.c: 174: TXREG=BufferT;
  2893  001A06  C060  FFAD         	movff	Transmitir@BufferT,4013	;volatile
  2894  001A0A  0012               	return		;funcret
  2895  001A0C                     __end_of_Transmitir:
  2896                           	callstack 0
  2897                           
  2898 ;; *************** function _BorraLCD *****************
  2899 ;; Defined at:
  2900 ;;		line 110 in file "LibLCDXC8.h"
  2901 ;; Parameters:    Size  Location     Type
  2902 ;;		None
  2903 ;; Auto vars:     Size  Location     Type
  2904 ;;		None
  2905 ;; Return value:  Size  Location     Type
  2906 ;;                  1    wreg      void 
  2907 ;; Registers used:
  2908 ;;		wreg, status,2, status,0, cstack
  2909 ;; Tracked objects:
  2910 ;;		On entry : 0/0
  2911 ;;		On exit  : 0/0
  2912 ;;		Unchanged: 0/0
  2913 ;; Data sizes:     COMRAM   BANK0   BANK1   BANK2   BANK3   BANK4   BANK5   BANK6   BANK7
  2914 ;;      Params:         0       0       0       0       0       0       0       0       0
  2915 ;;      Locals:         0       0       0       0       0       0       0       0       0
  2916 ;;      Temps:          0       0       0       0       0       0       0       0       0
  2917 ;;      Totals:         0       0       0       0       0       0       0       0       0
  2918 ;;Total ram usage:        0 bytes
  2919 ;; Hardware stack levels used: 1
  2920 ;; Hardware stack levels required when called: 7
  2921 ;; This function calls:
  2922 ;;		_EnviaDato
  2923 ;;		_HabilitaLCD
  2924 ;;		_RetardoLCD
  2925 ;; This function is called by:
  2926 ;;		_InicializaLCD
  2927 ;;		_main
  2928 ;;		_Duty
  2929 ;; This function uses a non-reentrant model
  2930 ;;
  2931                           
  2932                           	psect	text12
  2933  0019BC                     __ptext12:
  2934                           	callstack 0
  2935  0019BC                     _BorraLCD:
  2936                           	callstack 22
  2937                           
  2938                           ;LibLCDXC8.h: 112: LATD2=0;
  2939                           
  2940                           ;incstack = 0
  2941  0019BC  948C               	bcf	3980,2,c	;volatile
  2942                           
  2943                           ;LibLCDXC8.h: 113: EnviaDato(0x01);
  2944  0019BE  0E01               	movlw	1
  2945  0019C0  ECC9  F00B         	call	_EnviaDato
  2946                           
  2947                           ;LibLCDXC8.h: 114: HabilitaLCD();
  2948  0019C4  ECF2  F00C         	call	_HabilitaLCD	;wreg free
  2949                           
  2950                           ;LibLCDXC8.h: 115: RetardoLCD(2);
  2951  0019C8  0E02               	movlw	2
  2952  0019CA  EC5F  F00B         	call	_RetardoLCD
  2953  0019CE  0012               	return		;funcret
  2954  0019D0                     __end_of_BorraLCD:
  2955                           	callstack 0
  2956                           
  2957 ;; *************** function _DireccionaLCD *****************
  2958 ;; Defined at:
  2959 ;;		line 308 in file "LibLCDXC8.h"
  2960 ;; Parameters:    Size  Location     Type
  2961 ;;  a               1    wreg     unsigned char 
  2962 ;; Auto vars:     Size  Location     Type
  2963 ;;  a               1    4[BANK0 ] unsigned char 
  2964 ;; Return value:  Size  Location     Type
  2965 ;;                  1    wreg      void 
  2966 ;; Registers used:
  2967 ;;		wreg, status,2, status,0, cstack
  2968 ;; Tracked objects:
  2969 ;;		On entry : 3F/0
  2970 ;;		On exit  : 0/0
  2971 ;;		Unchanged: 0/0
  2972 ;; Data sizes:     COMRAM   BANK0   BANK1   BANK2   BANK3   BANK4   BANK5   BANK6   BANK7
  2973 ;;      Params:         0       0       0       0       0       0       0       0       0
  2974 ;;      Locals:         0       1       0       0       0       0       0       0       0
  2975 ;;      Temps:          0       0       0       0       0       0       0       0       0
  2976 ;;      Totals:         0       1       0       0       0       0       0       0       0
  2977 ;;Total ram usage:        1 bytes
  2978 ;; Hardware stack levels used: 1
  2979 ;; Hardware stack levels required when called: 7
  2980 ;; This function calls:
  2981 ;;		_EnviaDato
  2982 ;;		_HabilitaLCD
  2983 ;;		_RetardoLCD
  2984 ;; This function is called by:
  2985 ;;		_main
  2986 ;; This function uses a non-reentrant model
  2987 ;;
  2988                           
  2989                           	psect	text13
  2990  00198E                     __ptext13:
  2991                           	callstack 0
  2992  00198E                     _DireccionaLCD:
  2993                           	callstack 23
  2994                           
  2995                           ;incstack = 0
  2996                           ;DireccionaLCD@a stored from wreg
  2997  00198E  6F64               	movwf	DireccionaLCD@a& (0+255),b
  2998                           
  2999                           ;LibLCDXC8.h: 311: LATD2=0;
  3000  001990  948C               	bcf	3980,2,c	;volatile
  3001                           
  3002                           ;LibLCDXC8.h: 312: EnviaDato(a);
  3003  001992  0100               	movlb	0	; () banked
  3004  001994  5164               	movf	DireccionaLCD@a& (0+255),w,b
  3005  001996  ECC9  F00B         	call	_EnviaDato
  3006                           
  3007                           ;LibLCDXC8.h: 313: HabilitaLCD();
  3008  00199A  ECF2  F00C         	call	_HabilitaLCD	;wreg free
  3009                           
  3010                           ;LibLCDXC8.h: 314: RetardoLCD(4);
  3011  00199E  0E04               	movlw	4
  3012  0019A0  EC5F  F00B         	call	_RetardoLCD
  3013  0019A4  0012               	return		;funcret
  3014  0019A6                     __end_of_DireccionaLCD:
  3015                           	callstack 0
  3016                           
  3017 ;; *************** function _EnviaDato *****************
  3018 ;; Defined at:
  3019 ;;		line 55 in file "LibLCDXC8.h"
  3020 ;; Parameters:    Size  Location     Type
  3021 ;;  a               1    wreg     unsigned char 
  3022 ;; Auto vars:     Size  Location     Type
  3023 ;;  a               1    3[BANK0 ] unsigned char 
  3024 ;; Return value:  Size  Location     Type
  3025 ;;                  1    wreg      void 
  3026 ;; Registers used:
  3027 ;;		wreg, status,2, status,0, cstack
  3028 ;; Tracked objects:
  3029 ;;		On entry : 0/0
  3030 ;;		On exit  : 0/0
  3031 ;;		Unchanged: 0/0
  3032 ;; Data sizes:     COMRAM   BANK0   BANK1   BANK2   BANK3   BANK4   BANK5   BANK6   BANK7
  3033 ;;      Params:         0       0       0       0       0       0       0       0       0
  3034 ;;      Locals:         0       1       0       0       0       0       0       0       0
  3035 ;;      Temps:          0       1       0       0       0       0       0       0       0
  3036 ;;      Totals:         0       2       0       0       0       0       0       0       0
  3037 ;;Total ram usage:        2 bytes
  3038 ;; Hardware stack levels used: 1
  3039 ;; Hardware stack levels required when called: 6
  3040 ;; This function calls:
  3041 ;;		_HabilitaLCD
  3042 ;;		_RetardoLCD
  3043 ;; This function is called by:
  3044 ;;		_InicializaLCD
  3045 ;;		_BorraLCD
  3046 ;;		_EscribeLCD_c
  3047 ;;		_DireccionaLCD
  3048 ;; This function uses a non-reentrant model
  3049 ;;
  3050                           
  3051                           	psect	text14
  3052  001792                     __ptext14:
  3053                           	callstack 0
  3054  001792                     _EnviaDato:
  3055                           	callstack 22
  3056                           
  3057                           ;incstack = 0
  3058                           ;EnviaDato@a stored from wreg
  3059  001792  0100               	movlb	0	; () banked
  3060  001794  6F63               	movwf	EnviaDato@a& (0+255),b
  3061                           
  3062                           ;LibLCDXC8.h: 56: if(interfaz==4){
  3063  001796  0E04               	movlw	4
  3064  001798  1833               	xorwf	_interfaz^0,w,c
  3065  00179A  A4D8               	btfss	status,2,c
  3066  00179C  D019               	goto	l1874
  3067                           
  3068                           ;LibLCDXC8.h: 57: LATD=(LATD & 0b00001111) | (a & 0b11110000);
  3069  00179E  C063  F062         	movff	EnviaDato@a,??_EnviaDato
  3070  0017A2  0EF0               	movlw	240
  3071  0017A4  0100               	movlb	0	; () banked
  3072  0017A6  1762               	andwf	??_EnviaDato& (0+255),f,b
  3073  0017A8  508C               	movf	140,w,c	;volatile
  3074  0017AA  0B0F               	andlw	15
  3075  0017AC  1162               	iorwf	??_EnviaDato& (0+255),w,b
  3076  0017AE  6E8C               	movwf	140,c	;volatile
  3077                           
  3078                           ; BSR set to: 0
  3079                           ;LibLCDXC8.h: 58: HabilitaLCD();
  3080  0017B0  ECF2  F00C         	call	_HabilitaLCD	;wreg free
  3081                           
  3082                           ;LibLCDXC8.h: 59: RetardoLCD(1);
  3083  0017B4  0E01               	movlw	1
  3084  0017B6  EC5F  F00B         	call	_RetardoLCD
  3085                           
  3086                           ;LibLCDXC8.h: 60: LATD=(LATD & 0b00001111) | (a<<4);
  3087  0017BA  C063  F062         	movff	EnviaDato@a,??_EnviaDato
  3088  0017BE  0100               	movlb	0	; () banked
  3089  0017C0  3B62               	swapf	??_EnviaDato& (0+255),f,b
  3090  0017C2  0EF0               	movlw	240
  3091  0017C4  1762               	andwf	??_EnviaDato& (0+255),f,b
  3092  0017C6  508C               	movf	140,w,c	;volatile
  3093  0017C8  0B0F               	andlw	15
  3094  0017CA  1162               	iorwf	??_EnviaDato& (0+255),w,b
  3095  0017CC  6E8C               	movwf	140,c	;volatile
  3096                           
  3097                           ;LibLCDXC8.h: 63: }else if(interfaz==8){
  3098  0017CE  0012               	return	
  3099  0017D0                     l1874:
  3100  0017D0  0E08               	movlw	8
  3101  0017D2  1833               	xorwf	_interfaz^0,w,c
  3102  0017D4  A4D8               	btfss	status,2,c
  3103  0017D6  0012               	return	
  3104                           
  3105                           ;LibLCDXC8.h: 64: LATD=a;
  3106  0017D8  C063  FF8C         	movff	EnviaDato@a,3980	;volatile
  3107  0017DC  0012               	return		;funcret
  3108  0017DE                     __end_of_EnviaDato:
  3109                           	callstack 0
  3110                           
  3111 ;; *************** function _RetardoLCD *****************
  3112 ;; Defined at:
  3113 ;;		line 317 in file "LibLCDXC8.h"
  3114 ;; Parameters:    Size  Location     Type
  3115 ;;  a               1    wreg     unsigned char 
  3116 ;; Auto vars:     Size  Location     Type
  3117 ;;  a               1    1[BANK0 ] unsigned char 
  3118 ;; Return value:  Size  Location     Type
  3119 ;;                  1    wreg      void 
  3120 ;; Registers used:
  3121 ;;		wreg, status,2, status,0
  3122 ;; Tracked objects:
  3123 ;;		On entry : 0/0
  3124 ;;		On exit  : 0/0
  3125 ;;		Unchanged: 0/0
  3126 ;; Data sizes:     COMRAM   BANK0   BANK1   BANK2   BANK3   BANK4   BANK5   BANK6   BANK7
  3127 ;;      Params:         0       0       0       0       0       0       0       0       0
  3128 ;;      Locals:         0       1       0       0       0       0       0       0       0
  3129 ;;      Temps:          0       1       0       0       0       0       0       0       0
  3130 ;;      Totals:         0       2       0       0       0       0       0       0       0
  3131 ;;Total ram usage:        2 bytes
  3132 ;; Hardware stack levels used: 1
  3133 ;; Hardware stack levels required when called: 5
  3134 ;; This function calls:
  3135 ;;		Nothing
  3136 ;; This function is called by:
  3137 ;;		_EnviaDato
  3138 ;;		_InicializaLCD
  3139 ;;		_BorraLCD
  3140 ;;		_EscribeLCD_c
  3141 ;;		_DireccionaLCD
  3142 ;; This function uses a non-reentrant model
  3143 ;;
  3144                           
  3145                           	psect	text15
  3146  0016BE                     __ptext15:
  3147                           	callstack 0
  3148  0016BE                     _RetardoLCD:
  3149                           	callstack 23
  3150                           
  3151                           ;incstack = 0
  3152                           ;RetardoLCD@a stored from wreg
  3153  0016BE  0100               	movlb	0	; () banked
  3154  0016C0  6F61               	movwf	RetardoLCD@a& (0+255),b
  3155                           
  3156                           ;LibLCDXC8.h: 318: switch(a){
  3157  0016C2  D025               	goto	l1842
  3158  0016C4                     l1832:
  3159                           
  3160                           ; BSR set to: 0
  3161  0016C4  0E27               	movlw	39
  3162  0016C6  0100               	movlb	0	; () banked
  3163  0016C8  6F60               	movwf	??_RetardoLCD& (0+255),b
  3164  0016CA  0EF5               	movlw	245
  3165  0016CC                     u2177:
  3166  0016CC  2EE8               	decfsz	wreg,f,c
  3167  0016CE  D7FE               	bra	u2177
  3168  0016D0  2F60               	decfsz	??_RetardoLCD& (0+255),f,b
  3169  0016D2  D7FC               	bra	u2177
  3170                           
  3171                           ;LibLCDXC8.h: 321: break;
  3172  0016D4  0012               	return	
  3173  0016D6                     l1834:
  3174                           
  3175                           ; BSR set to: 0
  3176  0016D6  0E03               	movlw	3
  3177  0016D8  0100               	movlb	0	; () banked
  3178  0016DA  6F60               	movwf	??_RetardoLCD& (0+255),b
  3179  0016DC  0E97               	movlw	151
  3180  0016DE                     u2187:
  3181  0016DE  2EE8               	decfsz	wreg,f,c
  3182  0016E0  D7FE               	bra	u2187
  3183  0016E2  2F60               	decfsz	??_RetardoLCD& (0+255),f,b
  3184  0016E4  D7FC               	bra	u2187
  3185  0016E6  D000               	nop2	
  3186                           
  3187                           ;LibLCDXC8.h: 323: _delay((unsigned long)((640)*(8000000/4000000.0)));
  3188  0016E8  0EB6               	movlw	182
  3189  0016EA                     u2197:
  3190  0016EA  D000               	nop2	
  3191  0016EC  D000               	nop2	
  3192  0016EE  2EE8               	decfsz	wreg,f,c
  3193  0016F0  D7FC               	bra	u2197
  3194  0016F2  D000               	nop2	
  3195  0016F4  D000               	nop2	
  3196  0016F6  D000               	nop2	
  3197                           
  3198                           ;LibLCDXC8.h: 325: break;
  3199  0016F8  0012               	return	
  3200  0016FA                     l1836:
  3201                           
  3202                           ; BSR set to: 0
  3203  0016FA  0E42               	movlw	66
  3204  0016FC                     u2207:
  3205  0016FC  2EE8               	decfsz	wreg,f,c
  3206  0016FE  D7FE               	bra	u2207
  3207  001700  D000               	nop2	
  3208                           
  3209                           ;LibLCDXC8.h: 328: break;
  3210  001702  0012               	return	
  3211  001704                     l1838:
  3212                           
  3213                           ; BSR set to: 0
  3214  001704  0E1A               	movlw	26
  3215  001706                     u2217:
  3216  001706  2EE8               	decfsz	wreg,f,c
  3217  001708  D7FE               	bra	u2217
  3218  00170A  D000               	nop2	
  3219                           
  3220                           ;LibLCDXC8.h: 331: break;
  3221  00170C  0012               	return	
  3222  00170E                     l1842:
  3223  00170E  0100               	movlb	0	; () banked
  3224  001710  5161               	movf	RetardoLCD@a& (0+255),w,b
  3225                           
  3226                           ; Switch size 1, requested type "simple"
  3227                           ; Number of cases is 4, Range of values is 1 to 4
  3228                           ; switch strategies available:
  3229                           ; Name         Instructions Cycles
  3230                           ; simple_byte           13     7 (average)
  3231                           ;	Chosen strategy is simple_byte
  3232  001712  0A01               	xorlw	1	; case 1
  3233  001714  B4D8               	btfsc	status,2,c
  3234  001716  D7D6               	goto	l1832
  3235  001718  0A03               	xorlw	3	; case 2
  3236  00171A  B4D8               	btfsc	status,2,c
  3237  00171C  D7DC               	goto	l1834
  3238  00171E  0A01               	xorlw	1	; case 3
  3239  001720  B4D8               	btfsc	status,2,c
  3240  001722  D7EB               	goto	l1836
  3241  001724  0A07               	xorlw	7	; case 4
  3242  001726  A4D8               	btfss	status,2,c
  3243  001728  0012               	return	
  3244  00172A  D7EC               	goto	l1838
  3245  00172C                     __end_of_RetardoLCD:
  3246                           	callstack 0
  3247                           
  3248 ;; *************** function _HabilitaLCD *****************
  3249 ;; Defined at:
  3250 ;;		line 102 in file "LibLCDXC8.h"
  3251 ;; Parameters:    Size  Location     Type
  3252 ;;		None
  3253 ;; Auto vars:     Size  Location     Type
  3254 ;;		None
  3255 ;; Return value:  Size  Location     Type
  3256 ;;                  1    wreg      void 
  3257 ;; Registers used:
  3258 ;;		wreg
  3259 ;; Tracked objects:
  3260 ;;		On entry : 0/0
  3261 ;;		On exit  : 0/0
  3262 ;;		Unchanged: 0/0
  3263 ;; Data sizes:     COMRAM   BANK0   BANK1   BANK2   BANK3   BANK4   BANK5   BANK6   BANK7
  3264 ;;      Params:         0       0       0       0       0       0       0       0       0
  3265 ;;      Locals:         0       0       0       0       0       0       0       0       0
  3266 ;;      Temps:          0       0       0       0       0       0       0       0       0
  3267 ;;      Totals:         0       0       0       0       0       0       0       0       0
  3268 ;;Total ram usage:        0 bytes
  3269 ;; Hardware stack levels used: 1
  3270 ;; Hardware stack levels required when called: 5
  3271 ;; This function calls:
  3272 ;;		Nothing
  3273 ;; This function is called by:
  3274 ;;		_EnviaDato
  3275 ;;		_InicializaLCD
  3276 ;;		_BorraLCD
  3277 ;;		_EscribeLCD_c
  3278 ;;		_DireccionaLCD
  3279 ;; This function uses a non-reentrant model
  3280 ;;
  3281                           
  3282                           	psect	text16
  3283  0019E4                     __ptext16:
  3284                           	callstack 0
  3285  0019E4                     _HabilitaLCD:
  3286                           	callstack 23
  3287                           
  3288                           ;LibLCDXC8.h: 104: LATD3=1;
  3289                           
  3290                           ;incstack = 0
  3291  0019E4  868C               	bsf	3980,3,c	;volatile
  3292                           
  3293                           ;LibLCDXC8.h: 105: _delay((unsigned long)((40)*(8000000/4000000.0)));
  3294  0019E6  0E1A               	movlw	26
  3295  0019E8                     u2227:
  3296  0019E8  2EE8               	decfsz	wreg,f,c
  3297  0019EA  D7FE               	bra	u2227
  3298  0019EC  D000               	nop2	
  3299                           
  3300                           ;LibLCDXC8.h: 107: LATD3=0;
  3301  0019EE  968C               	bcf	3980,3,c	;volatile
  3302  0019F0  0012               	return		;funcret
  3303  0019F2                     __end_of_HabilitaLCD:
  3304                           	callstack 0
  3305                           
  3306 ;; *************** function _Conversion *****************
  3307 ;; Defined at:
  3308 ;;		line 177 in file "ProyectoControl.c"
  3309 ;; Parameters:    Size  Location     Type
  3310 ;;  canal           1    wreg     unsigned char 
  3311 ;; Auto vars:     Size  Location     Type
  3312 ;;  canal           1    3[BANK0 ] unsigned char 
  3313 ;; Return value:  Size  Location     Type
  3314 ;;                  2    0[BANK0 ] unsigned int 
  3315 ;; Registers used:
  3316 ;;		wreg, status,2, status,0
  3317 ;; Tracked objects:
  3318 ;;		On entry : 0/0
  3319 ;;		On exit  : 0/0
  3320 ;;		Unchanged: 0/0
  3321 ;; Data sizes:     COMRAM   BANK0   BANK1   BANK2   BANK3   BANK4   BANK5   BANK6   BANK7
  3322 ;;      Params:         0       2       0       0       0       0       0       0       0
  3323 ;;      Locals:         0       1       0       0       0       0       0       0       0
  3324 ;;      Temps:          0       1       0       0       0       0       0       0       0
  3325 ;;      Totals:         0       4       0       0       0       0       0       0       0
  3326 ;;Total ram usage:        4 bytes
  3327 ;; Hardware stack levels used: 1
  3328 ;; Hardware stack levels required when called: 5
  3329 ;; This function calls:
  3330 ;;		Nothing
  3331 ;; This function is called by:
  3332 ;;		_main
  3333 ;; This function uses a non-reentrant model
  3334 ;;
  3335                           
  3336                           	psect	text17
  3337  0018BE                     __ptext17:
  3338                           	callstack 0
  3339  0018BE                     _Conversion:
  3340                           	callstack 25
  3341                           
  3342                           ;incstack = 0
  3343                           ;Conversion@canal stored from wreg
  3344  0018BE  0100               	movlb	0	; () banked
  3345  0018C0  6F63               	movwf	Conversion@canal& (0+255),b
  3346                           
  3347                           ;ProyectoControl.c: 178: ADCON0=(ADCON0 & 0b00000011) | (canal<<2);
  3348  0018C2  C063  F062         	movff	Conversion@canal,??_Conversion
  3349  0018C6  0100               	movlb	0	; () banked
  3350  0018C8  90D8               	bcf	status,0,c
  3351  0018CA  3762               	rlcf	??_Conversion& (0+255),f,b
  3352  0018CC  90D8               	bcf	status,0,c
  3353  0018CE  3762               	rlcf	??_Conversion& (0+255),f,b
  3354  0018D0  50C2               	movf	194,w,c	;volatile
  3355  0018D2  0B03               	andlw	3
  3356  0018D4  1162               	iorwf	??_Conversion& (0+255),w,b
  3357  0018D6  6EC2               	movwf	194,c	;volatile
  3358                           
  3359                           ; BSR set to: 0
  3360                           ;ProyectoControl.c: 179: GO=1;
  3361  0018D8  82C2               	bsf	4034,1,c	;volatile
  3362  0018DA                     l236:
  3363  0018DA  B2C2               	btfsc	4034,1,c	;volatile
  3364  0018DC  D7FE               	goto	l236
  3365                           
  3366                           ;ProyectoControl.c: 181: return ADRES;
  3367  0018DE  CFC3 F060          	movff	4035,?_Conversion	;volatile
  3368  0018E2  CFC4 F061          	movff	4036,?_Conversion+1	;volatile
  3369  0018E6  0012               	return		;funcret
  3370  0018E8                     __end_of_Conversion:
  3371                           	callstack 0
  3372                           
  3373 ;; *************** function _ConfiguraLCD *****************
  3374 ;; Defined at:
  3375 ;;		line 51 in file "LibLCDXC8.h"
  3376 ;; Parameters:    Size  Location     Type
  3377 ;;  a               1    wreg     unsigned char 
  3378 ;; Auto vars:     Size  Location     Type
  3379 ;;  a               1    0[BANK0 ] unsigned char 
  3380 ;; Return value:  Size  Location     Type
  3381 ;;                  1    wreg      void 
  3382 ;; Registers used:
  3383 ;;		wreg, status,2, status,0
  3384 ;; Tracked objects:
  3385 ;;		On entry : 0/0
  3386 ;;		On exit  : 3F/0
  3387 ;;		Unchanged: 0/0
  3388 ;; Data sizes:     COMRAM   BANK0   BANK1   BANK2   BANK3   BANK4   BANK5   BANK6   BANK7
  3389 ;;      Params:         0       0       0       0       0       0       0       0       0
  3390 ;;      Locals:         0       1       0       0       0       0       0       0       0
  3391 ;;      Temps:          0       0       0       0       0       0       0       0       0
  3392 ;;      Totals:         0       1       0       0       0       0       0       0       0
  3393 ;;Total ram usage:        1 bytes
  3394 ;; Hardware stack levels used: 1
  3395 ;; Hardware stack levels required when called: 5
  3396 ;; This function calls:
  3397 ;;		Nothing
  3398 ;; This function is called by:
  3399 ;;		_main
  3400 ;; This function uses a non-reentrant model
  3401 ;;
  3402                           
  3403                           	psect	text18
  3404  00195A                     __ptext18:
  3405                           	callstack 0
  3406  00195A                     _ConfiguraLCD:
  3407                           	callstack 25
  3408                           
  3409                           ;incstack = 0
  3410                           ;ConfiguraLCD@a stored from wreg
  3411  00195A  0100               	movlb	0	; () banked
  3412  00195C  6F60               	movwf	ConfiguraLCD@a& (0+255),b
  3413                           
  3414                           ;LibLCDXC8.h: 52: if(a==4 | a ==8)
  3415  00195E  0E04               	movlw	4
  3416  001960  0100               	movlb	0	; () banked
  3417  001962  1960               	xorwf	ConfiguraLCD@a& (0+255),w,b
  3418  001964  B4D8               	btfsc	status,2,c
  3419  001966  D004               	goto	u1730
  3420                           
  3421                           ; BSR set to: 0
  3422  001968  0E08               	movlw	8
  3423  00196A  1960               	xorwf	ConfiguraLCD@a& (0+255),w,b
  3424  00196C  A4D8               	btfss	status,2,c
  3425  00196E  0012               	return	
  3426  001970                     u1730:
  3427                           
  3428                           ; BSR set to: 0
  3429                           ;LibLCDXC8.h: 53: interfaz=a;
  3430  001970  C060  F033         	movff	ConfiguraLCD@a,_interfaz
  3431                           
  3432                           ; BSR set to: 0
  3433  001974  0012               	return		;funcret
  3434  001976                     __end_of_ConfiguraLCD:
  3435                           	callstack 0
  3436                           
  3437 ;; *************** function _ISR *****************
  3438 ;; Defined at:
  3439 ;;		line 132 in file "ProyectoControl.c"
  3440 ;; Parameters:    Size  Location     Type
  3441 ;;		None
  3442 ;; Auto vars:     Size  Location     Type
  3443 ;;		None
  3444 ;; Return value:  Size  Location     Type
  3445 ;;                  1    wreg      void 
  3446 ;; Registers used:
  3447 ;;		wreg, status,2, status,0, tblptrl, tblptrh, tblptru, cstack
  3448 ;; Tracked objects:
  3449 ;;		On entry : 0/0
  3450 ;;		On exit  : 0/0
  3451 ;;		Unchanged: 0/0
  3452 ;; Data sizes:     COMRAM   BANK0   BANK1   BANK2   BANK3   BANK4   BANK5   BANK6   BANK7
  3453 ;;      Params:         0       0       0       0       0       0       0       0       0
  3454 ;;      Locals:         0       0       0       0       0       0       0       0       0
  3455 ;;      Temps:          6       0       0       0       0       0       0       0       0
  3456 ;;      Totals:         6       0       0       0       0       0       0       0       0
  3457 ;;Total ram usage:        6 bytes
  3458 ;; Hardware stack levels used: 1
  3459 ;; Hardware stack levels required when called: 4
  3460 ;; This function calls:
  3461 ;;		_LecturaEntrada
  3462 ;;		_Recibir
  3463 ;;		i2_BorraLCD
  3464 ;;		i2_MensajeLCD_Var
  3465 ;;		i2_Transmitir
  3466 ;; This function is called by:
  3467 ;;		Interrupt level 2
  3468 ;; This function uses a non-reentrant model
  3469 ;;
  3470                           
  3471                           	psect	intcode
  3472  000008                     __pintcode:
  3473                           	callstack 0
  3474  000008                     _ISR:
  3475                           	callstack 22
  3476                           
  3477                           ; BSR set to: 0
  3478                           ;incstack = 0
  3479  000008  8234               	bsf	btemp,1,c	;set compiler interrupt flag (level 2)
  3480  00000A  ED79  F009         	call	int_func,f	;refresh shadow registers
  3481                           
  3482                           	psect	intcode_body
  3483  0012F2                     __pintcode_body:
  3484                           	callstack 22
  3485  0012F2                     int_func:
  3486                           	callstack 22
  3487  0012F2  0006               	pop		; remove dummy address from shadow register refresh
  3488  0012F4  CFF6 F02E          	movff	tblptrl,??_ISR+2
  3489  0012F8  CFF7 F02F          	movff	tblptrh,??_ISR+3
  3490  0012FC  CFF8 F030          	movff	tblptru,??_ISR+4
  3491  001300  CFF5 F031          	movff	tablat,??_ISR+5
  3492                           
  3493                           ;ProyectoControl.c: 133: if(RCIF==1){
  3494  001304  AA9E               	btfss	3998,5,c	;volatile
  3495  001306  D007               	goto	i2l2524
  3496                           
  3497                           ;ProyectoControl.c: 134: Caso=Recibir();
  3498  001308  EC0C  F00D         	call	_Recibir	;wreg free
  3499  00130C  6E32               	movwf	_Caso^0,c
  3500                           
  3501                           ;ProyectoControl.c: 135: LecturaEntrada(Caso);
  3502  00130E  5032               	movf	_Caso^0,w,c
  3503  001310  EC81  F00A         	call	_LecturaEntrada
  3504                           
  3505                           ;ProyectoControl.c: 136: RCIF=0;
  3506  001314  9A9E               	bcf	3998,5,c	;volatile
  3507  001316                     i2l2524:
  3508                           
  3509                           ;ProyectoControl.c: 137: };ProyectoControl.c: 139: if(RBIF==1){
  3510  001316  A0F2               	btfss	4082,0,c	;volatile
  3511  001318  D035               	goto	i2l2550
  3512                           
  3513                           ;ProyectoControl.c: 140: if(RB7==0){
  3514  00131A  BE81               	btfsc	3969,7,c	;volatile
  3515  00131C  D01E               	goto	i2l217
  3516                           
  3517                           ;ProyectoControl.c: 141: Transmitir('A');
  3518  00131E  0E41               	movlw	65
  3519  001320  EC06  F00D         	call	i2_Transmitir
  3520                           
  3521                           ;ProyectoControl.c: 142: BorraLCD();
  3522  001324  ECE8  F00C         	call	i2_BorraLCD	;wreg free
  3523                           
  3524                           ;ProyectoControl.c: 143: _delay((unsigned long)((10)*(8000000/4000.0)));
  3525  001328  0E1A               	movlw	26
  3526  00132A  6E2C               	movwf	??_ISR^0,c
  3527  00132C  0EF8               	movlw	248
  3528  00132E                     i2u223_47:
  3529  00132E  2EE8               	decfsz	wreg,f,c
  3530  001330  D7FE               	bra	i2u223_47
  3531  001332  2E2C               	decfsz	??_ISR^0,f,c
  3532  001334  D7FC               	bra	i2u223_47
  3533  001336  D000               	nop2	
  3534                           
  3535                           ;ProyectoControl.c: 144: MensajeLCD_Var("Se detiene");
  3536  001338  0E2A               	movlw	low STR_3
  3537  00133A  6E06               	movwf	i2MensajeLCD_Var@a^0,c
  3538  00133C  EC74  F00C         	call	i2_MensajeLCD_Var	;wreg free
  3539  001340                     i2l2536:
  3540                           
  3541                           ;ProyectoControl.c: 145: _delay((unsigned long)((200)*(8000000/4000.0)));
  3542  001340  0E03               	movlw	3
  3543  001342  6E2D               	movwf	(??_ISR+1)^0,c
  3544  001344  0E08               	movlw	8
  3545  001346  6E2C               	movwf	??_ISR^0,c
  3546  001348  0E77               	movlw	119
  3547  00134A                     i2u224_47:
  3548  00134A  2EE8               	decfsz	wreg,f,c
  3549  00134C  D7FE               	bra	i2u224_47
  3550  00134E  2E2C               	decfsz	??_ISR^0,f,c
  3551  001350  D7FC               	bra	i2u224_47
  3552  001352  2E2D               	decfsz	(??_ISR+1)^0,f,c
  3553  001354  D7FA               	bra	i2u224_47
  3554  001356  F000               	nop	
  3555                           
  3556                           ;ProyectoControl.c: 147: }else if (RB6==0){
  3557  001358  D014               	goto	i2l2548
  3558  00135A                     i2l217:
  3559  00135A  BC81               	btfsc	3969,6,c	;volatile
  3560  00135C  D012               	goto	i2l2548
  3561                           
  3562                           ;ProyectoControl.c: 148: Transmitir('a');
  3563  00135E  0E61               	movlw	97
  3564  001360  EC06  F00D         	call	i2_Transmitir
  3565                           
  3566                           ;ProyectoControl.c: 149: BorraLCD();
  3567  001364  ECE8  F00C         	call	i2_BorraLCD	;wreg free
  3568                           
  3569                           ;ProyectoControl.c: 150: _delay((unsigned long)((10)*(8000000/4000.0)));
  3570  001368  0E1A               	movlw	26
  3571  00136A  6E2C               	movwf	??_ISR^0,c
  3572  00136C  0EF8               	movlw	248
  3573  00136E                     i2u225_47:
  3574  00136E  2EE8               	decfsz	wreg,f,c
  3575  001370  D7FE               	bra	i2u225_47
  3576  001372  2E2C               	decfsz	??_ISR^0,f,c
  3577  001374  D7FC               	bra	i2u225_47
  3578  001376  D000               	nop2	
  3579                           
  3580                           ;ProyectoControl.c: 151: MensajeLCD_Var("Se enciende");
  3581  001378  0E1E               	movlw	low STR_4
  3582  00137A  6E06               	movwf	i2MensajeLCD_Var@a^0,c
  3583  00137C  EC74  F00C         	call	i2_MensajeLCD_Var	;wreg free
  3584  001380  D7DF               	goto	i2l2536
  3585  001382                     i2l2548:
  3586                           
  3587                           ;ProyectoControl.c: 154: };ProyectoControl.c: 155: RBIF=0;
  3588  001382  90F2               	bcf	4082,0,c	;volatile
  3589  001384                     i2l2550:
  3590                           
  3591                           ;ProyectoControl.c: 156: };ProyectoControl.c: 158: if(TMR0IF==1){
  3592  001384  A4F2               	btfss	4082,2,c	;volatile
  3593  001386  D005               	goto	i2l221
  3594                           
  3595                           ;ProyectoControl.c: 159: TMR0=34286;
  3596  001388  0E85               	movlw	133
  3597  00138A  6ED7               	movwf	215,c	;volatile
  3598  00138C  0EEE               	movlw	238
  3599  00138E  6ED6               	movwf	214,c	;volatile
  3600                           
  3601                           ;ProyectoControl.c: 160: TMR0IF=0;
  3602  001390  94F2               	bcf	4082,2,c	;volatile
  3603  001392                     i2l221:
  3604  001392  C031  FFF5         	movff	??_ISR+5,tablat
  3605  001396  C030  FFF8         	movff	??_ISR+4,tblptru
  3606  00139A  C02F  FFF7         	movff	??_ISR+3,tblptrh
  3607  00139E  C02E  FFF6         	movff	??_ISR+2,tblptrl
  3608  0013A2  9234               	bcf	btemp,1,c	;clear compiler interrupt flag (level 2)
  3609  0013A4  0011               	retfie		f
  3610  0013A6                     __end_of_ISR:
  3611                           	callstack 0
  3612                           
  3613 ;; *************** function i2_Transmitir *****************
  3614 ;; Defined at:
  3615 ;;		line 172 in file "ProyectoControl.c"
  3616 ;; Parameters:    Size  Location     Type
  3617 ;;  BufferT         1    wreg     unsigned char 
  3618 ;; Auto vars:     Size  Location     Type
  3619 ;;  BufferT         1    0[COMRAM] unsigned char 
  3620 ;; Return value:  Size  Location     Type
  3621 ;;                  1    wreg      void 
  3622 ;; Registers used:
  3623 ;;		wreg
  3624 ;; Tracked objects:
  3625 ;;		On entry : 0/0
  3626 ;;		On exit  : 0/0
  3627 ;;		Unchanged: 0/0
  3628 ;; Data sizes:     COMRAM   BANK0   BANK1   BANK2   BANK3   BANK4   BANK5   BANK6   BANK7
  3629 ;;      Params:         0       0       0       0       0       0       0       0       0
  3630 ;;      Locals:         1       0       0       0       0       0       0       0       0
  3631 ;;      Temps:          0       0       0       0       0       0       0       0       0
  3632 ;;      Totals:         1       0       0       0       0       0       0       0       0
  3633 ;;Total ram usage:        1 bytes
  3634 ;; Hardware stack levels used: 1
  3635 ;; This function calls:
  3636 ;;		Nothing
  3637 ;; This function is called by:
  3638 ;;		_ISR
  3639 ;; This function uses a non-reentrant model
  3640 ;;
  3641                           
  3642                           	psect	text20
  3643  001A0C                     __ptext20:
  3644                           	callstack 0
  3645  001A0C                     i2_Transmitir:
  3646                           	callstack 25
  3647                           
  3648                           ;incstack = 0
  3649                           ;i2Transmitir@BufferT stored from wreg
  3650  001A0C  6E01               	movwf	i2Transmitir@BufferT^0,c
  3651  001A0E                     
  3652                           ;ProyectoControl.c: 173: while(TRMT==0);
  3653  001A0E  A2AC               	btfss	4012,1,c	;volatile
  3654  001A10  D7FE               	goto	i2l2452
  3655                           
  3656                           ;ProyectoControl.c: 174: TXREG=BufferT;
  3657  001A12  C001  FFAD         	movff	i2Transmitir@BufferT,4013	;volatile
  3658  001A16  0012               	return		;funcret
  3659  001A18                     __end_ofi2_Transmitir:
  3660                           	callstack 0
  3661                           
  3662 ;; *************** function i2_MensajeLCD_Var *****************
  3663 ;; Defined at:
  3664 ;;		line 298 in file "LibLCDXC8.h"
  3665 ;; Parameters:    Size  Location     Type
  3666 ;;  a               1    5[COMRAM] PTR unsigned char 
  3667 ;;		 -> STR_4(12), STR_3(11), STR_2(15), STR_1(14), 
  3668 ;; Auto vars:     Size  Location     Type
  3669 ;;		None
  3670 ;; Return value:  Size  Location     Type
  3671 ;;                  1    wreg      void 
  3672 ;; Registers used:
  3673 ;;		wreg, status,2, status,0, tblptrl, tblptrh, tblptru, cstack
  3674 ;; Tracked objects:
  3675 ;;		On entry : 0/0
  3676 ;;		On exit  : 0/0
  3677 ;;		Unchanged: 0/0
  3678 ;; Data sizes:     COMRAM   BANK0   BANK1   BANK2   BANK3   BANK4   BANK5   BANK6   BANK7
  3679 ;;      Params:         1       0       0       0       0       0       0       0       0
  3680 ;;      Locals:         0       0       0       0       0       0       0       0       0
  3681 ;;      Temps:          0       0       0       0       0       0       0       0       0
  3682 ;;      Totals:         1       0       0       0       0       0       0       0       0
  3683 ;;Total ram usage:        1 bytes
  3684 ;; Hardware stack levels used: 1
  3685 ;; Hardware stack levels required when called: 3
  3686 ;; This function calls:
  3687 ;;		i2_EscribeLCD_c
  3688 ;; This function is called by:
  3689 ;;		_ISR
  3690 ;; This function uses a non-reentrant model
  3691 ;;
  3692                           
  3693                           	psect	text21
  3694  0018E8                     __ptext21:
  3695                           	callstack 0
  3696  0018E8                     i2_MensajeLCD_Var:
  3697                           	callstack 22
  3698                           
  3699                           ;LibLCDXC8.h: 302: while(*a != '\0'){
  3700                           
  3701                           ;incstack = 0
  3702  0018E8  D009               	goto	i2l2450
  3703  0018EA                     i2l2446:
  3704                           
  3705                           ;LibLCDXC8.h: 303: EscribeLCD_c(*a);
  3706  0018EA  C006  FFF6         	movff	i2MensajeLCD_Var@a,tblptrl
  3707  0018EE                     	if	1	;There is more than 1 active tblptr byte
  3708  0018EE  0E08               	movlw	high __smallconst
  3709  0018F0  6EF7               	movwf	tblptrh,c
  3710  0018F2                     	endif
  3711  0018F2                     	if	0	;tblptru may be non-zero
  3712  0018F2                     	endif
  3713  0018F2                     	if	0	;tblptru may be non-zero
  3714  0018F2                     	endif
  3715  0018F2  0008               	tblrd		*
  3716  0018F4  50F5               	movf	tablat,w,c
  3717  0018F6  ECD3  F00C         	call	i2_EscribeLCD_c
  3718                           
  3719                           ;LibLCDXC8.h: 304: a++;
  3720  0018FA  2A06               	incf	i2MensajeLCD_Var@a^0,f,c
  3721  0018FC                     i2l2450:
  3722  0018FC  C006  FFF6         	movff	i2MensajeLCD_Var@a,tblptrl
  3723  001900                     	if	1	;There is more than 1 active tblptr byte
  3724  001900  0E08               	movlw	high __smallconst
  3725  001902  6EF7               	movwf	tblptrh,c
  3726  001904                     	endif
  3727  001904                     	if	0	;tblptru may be non-zero
  3728  001904                     	endif
  3729  001904                     	if	0	;tblptru may be non-zero
  3730  001904                     	endif
  3731  001904  0008               	tblrd		*
  3732  001906  50F5               	movf	tablat,w,c
  3733  001908  0900               	iorlw	0
  3734  00190A  B4D8               	btfsc	status,2,c
  3735  00190C  0012               	return	
  3736  00190E  D7ED               	goto	i2l2446
  3737  001910                     __end_ofi2_MensajeLCD_Var:
  3738                           	callstack 0
  3739                           
  3740 ;; *************** function i2_EscribeLCD_c *****************
  3741 ;; Defined at:
  3742 ;;		line 118 in file "LibLCDXC8.h"
  3743 ;; Parameters:    Size  Location     Type
  3744 ;;  a               1    wreg     unsigned char 
  3745 ;; Auto vars:     Size  Location     Type
  3746 ;;  a               1    4[COMRAM] unsigned char 
  3747 ;; Return value:  Size  Location     Type
  3748 ;;                  1    wreg      void 
  3749 ;; Registers used:
  3750 ;;		wreg, status,2, status,0, cstack
  3751 ;; Tracked objects:
  3752 ;;		On entry : 0/0
  3753 ;;		On exit  : 0/0
  3754 ;;		Unchanged: 0/0
  3755 ;; Data sizes:     COMRAM   BANK0   BANK1   BANK2   BANK3   BANK4   BANK5   BANK6   BANK7
  3756 ;;      Params:         0       0       0       0       0       0       0       0       0
  3757 ;;      Locals:         1       0       0       0       0       0       0       0       0
  3758 ;;      Temps:          0       0       0       0       0       0       0       0       0
  3759 ;;      Totals:         1       0       0       0       0       0       0       0       0
  3760 ;;Total ram usage:        1 bytes
  3761 ;; Hardware stack levels used: 1
  3762 ;; Hardware stack levels required when called: 2
  3763 ;; This function calls:
  3764 ;;		i2_EnviaDato
  3765 ;;		i2_HabilitaLCD
  3766 ;;		i2_RetardoLCD
  3767 ;; This function is called by:
  3768 ;;		i2_MensajeLCD_Var
  3769 ;; This function uses a non-reentrant model
  3770 ;;
  3771                           
  3772                           	psect	text22
  3773  0019A6                     __ptext22:
  3774                           	callstack 0
  3775  0019A6                     i2_EscribeLCD_c:
  3776                           	callstack 22
  3777                           
  3778                           ;incstack = 0
  3779                           ;i2EscribeLCD_c@a stored from wreg
  3780  0019A6  6E05               	movwf	i2EscribeLCD_c@a^0,c
  3781                           
  3782                           ;LibLCDXC8.h: 122: LATD2=1;
  3783  0019A8  848C               	bsf	3980,2,c	;volatile
  3784                           
  3785                           ;LibLCDXC8.h: 123: EnviaDato(a);
  3786  0019AA  5005               	movf	i2EscribeLCD_c@a^0,w,c
  3787  0019AC  ECEF  F00B         	call	i2_EnviaDato
  3788                           
  3789                           ;LibLCDXC8.h: 124: HabilitaLCD();
  3790  0019B0  ECF9  F00C         	call	i2_HabilitaLCD	;wreg free
  3791                           
  3792                           ;LibLCDXC8.h: 125: RetardoLCD(4);
  3793  0019B4  0E04               	movlw	4
  3794  0019B6  EC96  F00B         	call	i2_RetardoLCD
  3795  0019BA  0012               	return		;funcret
  3796  0019BC                     __end_ofi2_EscribeLCD_c:
  3797                           	callstack 0
  3798                           
  3799 ;; *************** function i2_BorraLCD *****************
  3800 ;; Defined at:
  3801 ;;		line 110 in file "LibLCDXC8.h"
  3802 ;; Parameters:    Size  Location     Type
  3803 ;;		None
  3804 ;; Auto vars:     Size  Location     Type
  3805 ;;		None
  3806 ;; Return value:  Size  Location     Type
  3807 ;;                  1    wreg      void 
  3808 ;; Registers used:
  3809 ;;		wreg, status,2, status,0, cstack
  3810 ;; Tracked objects:
  3811 ;;		On entry : 0/0
  3812 ;;		On exit  : 0/0
  3813 ;;		Unchanged: 0/0
  3814 ;; Data sizes:     COMRAM   BANK0   BANK1   BANK2   BANK3   BANK4   BANK5   BANK6   BANK7
  3815 ;;      Params:         0       0       0       0       0       0       0       0       0
  3816 ;;      Locals:         0       0       0       0       0       0       0       0       0
  3817 ;;      Temps:          0       0       0       0       0       0       0       0       0
  3818 ;;      Totals:         0       0       0       0       0       0       0       0       0
  3819 ;;Total ram usage:        0 bytes
  3820 ;; Hardware stack levels used: 1
  3821 ;; Hardware stack levels required when called: 2
  3822 ;; This function calls:
  3823 ;;		i2_EnviaDato
  3824 ;;		i2_HabilitaLCD
  3825 ;;		i2_RetardoLCD
  3826 ;; This function is called by:
  3827 ;;		_ISR
  3828 ;; This function uses a non-reentrant model
  3829 ;;
  3830                           
  3831                           	psect	text23
  3832  0019D0                     __ptext23:
  3833                           	callstack 0
  3834  0019D0                     i2_BorraLCD:
  3835                           	callstack 23
  3836                           
  3837                           ;LibLCDXC8.h: 112: LATD2=0;
  3838                           
  3839                           ;incstack = 0
  3840  0019D0  948C               	bcf	3980,2,c	;volatile
  3841                           
  3842                           ;LibLCDXC8.h: 113: EnviaDato(0x01);
  3843  0019D2  0E01               	movlw	1
  3844  0019D4  ECEF  F00B         	call	i2_EnviaDato
  3845                           
  3846                           ;LibLCDXC8.h: 114: HabilitaLCD();
  3847  0019D8  ECF9  F00C         	call	i2_HabilitaLCD	;wreg free
  3848                           
  3849                           ;LibLCDXC8.h: 115: RetardoLCD(2);
  3850  0019DC  0E02               	movlw	2
  3851  0019DE  EC96  F00B         	call	i2_RetardoLCD
  3852  0019E2  0012               	return		;funcret
  3853  0019E4                     __end_ofi2_BorraLCD:
  3854                           	callstack 0
  3855                           
  3856 ;; *************** function i2_EnviaDato *****************
  3857 ;; Defined at:
  3858 ;;		line 55 in file "LibLCDXC8.h"
  3859 ;; Parameters:    Size  Location     Type
  3860 ;;  a               1    wreg     unsigned char 
  3861 ;; Auto vars:     Size  Location     Type
  3862 ;;  a               1    3[COMRAM] unsigned char 
  3863 ;; Return value:  Size  Location     Type
  3864 ;;                  1    wreg      void 
  3865 ;; Registers used:
  3866 ;;		wreg, status,2, status,0, cstack
  3867 ;; Tracked objects:
  3868 ;;		On entry : 0/0
  3869 ;;		On exit  : 0/0
  3870 ;;		Unchanged: 0/0
  3871 ;; Data sizes:     COMRAM   BANK0   BANK1   BANK2   BANK3   BANK4   BANK5   BANK6   BANK7
  3872 ;;      Params:         0       0       0       0       0       0       0       0       0
  3873 ;;      Locals:         1       0       0       0       0       0       0       0       0
  3874 ;;      Temps:          1       0       0       0       0       0       0       0       0
  3875 ;;      Totals:         2       0       0       0       0       0       0       0       0
  3876 ;;Total ram usage:        2 bytes
  3877 ;; Hardware stack levels used: 1
  3878 ;; Hardware stack levels required when called: 1
  3879 ;; This function calls:
  3880 ;;		i2_HabilitaLCD
  3881 ;;		i2_RetardoLCD
  3882 ;; This function is called by:
  3883 ;;		i2_BorraLCD
  3884 ;;		i2_EscribeLCD_c
  3885 ;; This function uses a non-reentrant model
  3886 ;;
  3887                           
  3888                           	psect	text24
  3889  0017DE                     __ptext24:
  3890                           	callstack 0
  3891  0017DE                     i2_EnviaDato:
  3892                           	callstack 22
  3893                           
  3894                           ;incstack = 0
  3895                           ;i2EnviaDato@a stored from wreg
  3896  0017DE  6E04               	movwf	i2EnviaDato@a^0,c
  3897                           
  3898                           ;LibLCDXC8.h: 56: if(interfaz==4){
  3899  0017E0  0E04               	movlw	4
  3900  0017E2  1833               	xorwf	_interfaz^0,w,c
  3901  0017E4  A4D8               	btfss	status,2,c
  3902  0017E6  D017               	goto	i2l1924
  3903                           
  3904                           ;LibLCDXC8.h: 57: LATD=(LATD & 0b00001111) | (a & 0b11110000);
  3905  0017E8  C004  F003         	movff	i2EnviaDato@a,??i2_EnviaDato
  3906  0017EC  0EF0               	movlw	240
  3907  0017EE  1603               	andwf	??i2_EnviaDato^0,f,c
  3908  0017F0  508C               	movf	140,w,c	;volatile
  3909  0017F2  0B0F               	andlw	15
  3910  0017F4  1003               	iorwf	??i2_EnviaDato^0,w,c
  3911  0017F6  6E8C               	movwf	140,c	;volatile
  3912                           
  3913                           ;LibLCDXC8.h: 58: HabilitaLCD();
  3914  0017F8  ECF9  F00C         	call	i2_HabilitaLCD	;wreg free
  3915                           
  3916                           ;LibLCDXC8.h: 59: RetardoLCD(1);
  3917  0017FC  0E01               	movlw	1
  3918  0017FE  EC96  F00B         	call	i2_RetardoLCD
  3919                           
  3920                           ;LibLCDXC8.h: 60: LATD=(LATD & 0b00001111) | (a<<4);
  3921  001802  C004  F003         	movff	i2EnviaDato@a,??i2_EnviaDato
  3922  001806  3A03               	swapf	??i2_EnviaDato^0,f,c
  3923  001808  0EF0               	movlw	240
  3924  00180A  1603               	andwf	??i2_EnviaDato^0,f,c
  3925  00180C  508C               	movf	140,w,c	;volatile
  3926  00180E  0B0F               	andlw	15
  3927  001810  1003               	iorwf	??i2_EnviaDato^0,w,c
  3928  001812  6E8C               	movwf	140,c	;volatile
  3929                           
  3930                           ;LibLCDXC8.h: 63: }else if(interfaz==8){
  3931  001814  0012               	return	
  3932  001816                     i2l1924:
  3933  001816  0E08               	movlw	8
  3934  001818  1833               	xorwf	_interfaz^0,w,c
  3935  00181A  A4D8               	btfss	status,2,c
  3936  00181C  0012               	return	
  3937                           
  3938                           ;LibLCDXC8.h: 64: LATD=a;
  3939  00181E  C004  FF8C         	movff	i2EnviaDato@a,3980	;volatile
  3940  001822  0012               	return		;funcret
  3941  001824                     __end_ofi2_EnviaDato:
  3942                           	callstack 0
  3943                           
  3944 ;; *************** function i2_RetardoLCD *****************
  3945 ;; Defined at:
  3946 ;;		line 317 in file "LibLCDXC8.h"
  3947 ;; Parameters:    Size  Location     Type
  3948 ;;  a               1    wreg     unsigned char 
  3949 ;; Auto vars:     Size  Location     Type
  3950 ;;  a               1    1[COMRAM] unsigned char 
  3951 ;; Return value:  Size  Location     Type
  3952 ;;                  1    wreg      void 
  3953 ;; Registers used:
  3954 ;;		wreg, status,2, status,0
  3955 ;; Tracked objects:
  3956 ;;		On entry : 0/0
  3957 ;;		On exit  : 0/0
  3958 ;;		Unchanged: 0/0
  3959 ;; Data sizes:     COMRAM   BANK0   BANK1   BANK2   BANK3   BANK4   BANK5   BANK6   BANK7
  3960 ;;      Params:         0       0       0       0       0       0       0       0       0
  3961 ;;      Locals:         1       0       0       0       0       0       0       0       0
  3962 ;;      Temps:          1       0       0       0       0       0       0       0       0
  3963 ;;      Totals:         2       0       0       0       0       0       0       0       0
  3964 ;;Total ram usage:        2 bytes
  3965 ;; Hardware stack levels used: 1
  3966 ;; This function calls:
  3967 ;;		Nothing
  3968 ;; This function is called by:
  3969 ;;		i2_EnviaDato
  3970 ;;		i2_BorraLCD
  3971 ;;		i2_EscribeLCD_c
  3972 ;; This function uses a non-reentrant model
  3973 ;;
  3974                           
  3975                           	psect	text25
  3976  00172C                     __ptext25:
  3977                           	callstack 0
  3978  00172C                     i2_RetardoLCD:
  3979                           	callstack 23
  3980                           
  3981                           ;incstack = 0
  3982                           ;i2RetardoLCD@a stored from wreg
  3983  00172C  6E02               	movwf	i2RetardoLCD@a^0,c
  3984                           
  3985                           ;LibLCDXC8.h: 318: switch(a){
  3986  00172E  D023               	goto	i2l1862
  3987  001730                     i2l1852:
  3988  001730  0E27               	movlw	39
  3989  001732  6E01               	movwf	??i2_RetardoLCD^0,c
  3990  001734  0EF5               	movlw	245
  3991  001736                     i2u226_47:
  3992  001736  2EE8               	decfsz	wreg,f,c
  3993  001738  D7FE               	bra	i2u226_47
  3994  00173A  2E01               	decfsz	??i2_RetardoLCD^0,f,c
  3995  00173C  D7FC               	bra	i2u226_47
  3996  00173E  F000               	nop	
  3997                           
  3998                           ;LibLCDXC8.h: 321: break;
  3999  001740  0012               	return	
  4000  001742                     i2l1854:
  4001  001742  0E03               	movlw	3
  4002  001744  6E01               	movwf	??i2_RetardoLCD^0,c
  4003  001746  0E98               	movlw	152
  4004  001748                     i2u227_47:
  4005  001748  2EE8               	decfsz	wreg,f,c
  4006  00174A  D7FE               	bra	i2u227_47
  4007  00174C  2E01               	decfsz	??i2_RetardoLCD^0,f,c
  4008  00174E  D7FC               	bra	i2u227_47
  4009                           
  4010                           ;LibLCDXC8.h: 323: _delay((unsigned long)((640)*(8000000/4000000.0)));
  4011  001750  0EB6               	movlw	182
  4012  001752                     i2u228_47:
  4013  001752  D000               	nop2	
  4014  001754  D000               	nop2	
  4015  001756  2EE8               	decfsz	wreg,f,c
  4016  001758  D7FC               	bra	i2u228_47
  4017  00175A  D000               	nop2	
  4018  00175C  D000               	nop2	
  4019  00175E  D000               	nop2	
  4020                           
  4021                           ;LibLCDXC8.h: 325: break;
  4022  001760  0012               	return	
  4023  001762                     i2l1856:
  4024  001762  0E42               	movlw	66
  4025  001764                     i2u229_47:
  4026  001764  2EE8               	decfsz	wreg,f,c
  4027  001766  D7FE               	bra	i2u229_47
  4028  001768  D000               	nop2	
  4029                           
  4030                           ;LibLCDXC8.h: 328: break;
  4031  00176A  0012               	return	
  4032  00176C                     i2l1858:
  4033  00176C  0E1A               	movlw	26
  4034  00176E                     i2u230_47:
  4035  00176E  2EE8               	decfsz	wreg,f,c
  4036  001770  D7FE               	bra	i2u230_47
  4037  001772  D000               	nop2	
  4038                           
  4039                           ;LibLCDXC8.h: 331: break;
  4040  001774  0012               	return	
  4041  001776                     i2l1862:
  4042  001776  5002               	movf	i2RetardoLCD@a^0,w,c
  4043                           
  4044                           ; Switch size 1, requested type "simple"
  4045                           ; Number of cases is 4, Range of values is 1 to 4
  4046                           ; switch strategies available:
  4047                           ; Name         Instructions Cycles
  4048                           ; simple_byte           13     7 (average)
  4049                           ;	Chosen strategy is simple_byte
  4050  001778  0A01               	xorlw	1	; case 1
  4051  00177A  B4D8               	btfsc	status,2,c
  4052  00177C  D7D9               	goto	i2l1852
  4053  00177E  0A03               	xorlw	3	; case 2
  4054  001780  B4D8               	btfsc	status,2,c
  4055  001782  D7DF               	goto	i2l1854
  4056  001784  0A01               	xorlw	1	; case 3
  4057  001786  B4D8               	btfsc	status,2,c
  4058  001788  D7EC               	goto	i2l1856
  4059  00178A  0A07               	xorlw	7	; case 4
  4060  00178C  A4D8               	btfss	status,2,c
  4061  00178E  0012               	return	
  4062  001790  D7ED               	goto	i2l1858
  4063  001792                     __end_ofi2_RetardoLCD:
  4064                           	callstack 0
  4065                           
  4066 ;; *************** function i2_HabilitaLCD *****************
  4067 ;; Defined at:
  4068 ;;		line 102 in file "LibLCDXC8.h"
  4069 ;; Parameters:    Size  Location     Type
  4070 ;;		None
  4071 ;; Auto vars:     Size  Location     Type
  4072 ;;		None
  4073 ;; Return value:  Size  Location     Type
  4074 ;;                  1    wreg      void 
  4075 ;; Registers used:
  4076 ;;		wreg
  4077 ;; Tracked objects:
  4078 ;;		On entry : 0/0
  4079 ;;		On exit  : 0/0
  4080 ;;		Unchanged: 0/0
  4081 ;; Data sizes:     COMRAM   BANK0   BANK1   BANK2   BANK3   BANK4   BANK5   BANK6   BANK7
  4082 ;;      Params:         0       0       0       0       0       0       0       0       0
  4083 ;;      Locals:         0       0       0       0       0       0       0       0       0
  4084 ;;      Temps:          0       0       0       0       0       0       0       0       0
  4085 ;;      Totals:         0       0       0       0       0       0       0       0       0
  4086 ;;Total ram usage:        0 bytes
  4087 ;; Hardware stack levels used: 1
  4088 ;; This function calls:
  4089 ;;		Nothing
  4090 ;; This function is called by:
  4091 ;;		i2_EnviaDato
  4092 ;;		i2_BorraLCD
  4093 ;;		i2_EscribeLCD_c
  4094 ;; This function uses a non-reentrant model
  4095 ;;
  4096                           
  4097                           	psect	text26
  4098  0019F2                     __ptext26:
  4099                           	callstack 0
  4100  0019F2                     i2_HabilitaLCD:
  4101                           	callstack 23
  4102                           
  4103                           ;LibLCDXC8.h: 104: LATD3=1;
  4104                           
  4105                           ;incstack = 0
  4106  0019F2  868C               	bsf	3980,3,c	;volatile
  4107                           
  4108                           ;LibLCDXC8.h: 105: _delay((unsigned long)((40)*(8000000/4000000.0)));
  4109  0019F4  0E1A               	movlw	26
  4110  0019F6                     i2u231_47:
  4111  0019F6  2EE8               	decfsz	wreg,f,c
  4112  0019F8  D7FE               	bra	i2u231_47
  4113  0019FA  D000               	nop2	
  4114                           
  4115                           ;LibLCDXC8.h: 107: LATD3=0;
  4116  0019FC  968C               	bcf	3980,3,c	;volatile
  4117  0019FE  0012               	return		;funcret
  4118  001A00                     __end_ofi2_HabilitaLCD:
  4119                           	callstack 0
  4120                           
  4121 ;; *************** function _Recibir *****************
  4122 ;; Defined at:
  4123 ;;		line 167 in file "ProyectoControl.c"
  4124 ;; Parameters:    Size  Location     Type
  4125 ;;		None
  4126 ;; Auto vars:     Size  Location     Type
  4127 ;;		None
  4128 ;; Return value:  Size  Location     Type
  4129 ;;                  1    wreg      unsigned char 
  4130 ;; Registers used:
  4131 ;;		wreg, status,2
  4132 ;; Tracked objects:
  4133 ;;		On entry : 0/0
  4134 ;;		On exit  : 0/0
  4135 ;;		Unchanged: 0/0
  4136 ;; Data sizes:     COMRAM   BANK0   BANK1   BANK2   BANK3   BANK4   BANK5   BANK6   BANK7
  4137 ;;      Params:         0       0       0       0       0       0       0       0       0
  4138 ;;      Locals:         0       0       0       0       0       0       0       0       0
  4139 ;;      Temps:          0       0       0       0       0       0       0       0       0
  4140 ;;      Totals:         0       0       0       0       0       0       0       0       0
  4141 ;;Total ram usage:        0 bytes
  4142 ;; Hardware stack levels used: 1
  4143 ;; This function calls:
  4144 ;;		Nothing
  4145 ;; This function is called by:
  4146 ;;		_ISR
  4147 ;; This function uses a non-reentrant model
  4148 ;;
  4149                           
  4150                           	psect	text27
  4151  001A18                     __ptext27:
  4152                           	callstack 0
  4153  001A18                     _Recibir:
  4154                           	callstack 25
  4155                           
  4156                           ;ProyectoControl.c: 168: while(RCIF==0);
  4157                           
  4158                           ;incstack = 0
  4159  001A18  AA9E               	btfss	3998,5,c	;volatile
  4160  001A1A  D7FE               	goto	_Recibir
  4161                           
  4162                           ;ProyectoControl.c: 169: return RCREG;
  4163  001A1C  50AE               	movf	174,w,c	;volatile
  4164  001A1E  0012               	return		;funcret
  4165  001A20                     __end_of_Recibir:
  4166                           	callstack 0
  4167                           
  4168 ;; *************** function _LecturaEntrada *****************
  4169 ;; Defined at:
  4170 ;;		line 324 in file "ProyectoControl.c"
  4171 ;; Parameters:    Size  Location     Type
  4172 ;;  entrada         1    wreg     unsigned char 
  4173 ;; Auto vars:     Size  Location     Type
  4174 ;;  entrada         1   42[COMRAM] unsigned char 
  4175 ;; Return value:  Size  Location     Type
  4176 ;;                  1    wreg      void 
  4177 ;; Registers used:
  4178 ;;		wreg, status,2, status,0, cstack
  4179 ;; Tracked objects:
  4180 ;;		On entry : 0/0
  4181 ;;		On exit  : 0/0
  4182 ;;		Unchanged: 0/0
  4183 ;; Data sizes:     COMRAM   BANK0   BANK1   BANK2   BANK3   BANK4   BANK5   BANK6   BANK7
  4184 ;;      Params:         0       0       0       0       0       0       0       0       0
  4185 ;;      Locals:         1       0       0       0       0       0       0       0       0
  4186 ;;      Temps:          0       0       0       0       0       0       0       0       0
  4187 ;;      Totals:         1       0       0       0       0       0       0       0       0
  4188 ;;Total ram usage:        1 bytes
  4189 ;; Hardware stack levels used: 1
  4190 ;; Hardware stack levels required when called: 2
  4191 ;; This function calls:
  4192 ;;		___ftmul
  4193 ;;		___fttol
  4194 ;;		___lbtoft
  4195 ;; This function is called by:
  4196 ;;		_ISR
  4197 ;; This function uses a non-reentrant model
  4198 ;;
  4199                           
  4200                           	psect	text28
  4201  001502                     __ptext28:
  4202                           	callstack 0
  4203  001502                     _LecturaEntrada:
  4204                           	callstack 23
  4205                           
  4206                           ;incstack = 0
  4207                           ;LecturaEntrada@entrada stored from wreg
  4208  001502  6E2B               	movwf	LecturaEntrada@entrada^0,c
  4209                           
  4210                           ;ProyectoControl.c: 326: switch(entrada){
  4211  001504  D046               	goto	i2l2422
  4212  001506                     i2l316:
  4213                           
  4214                           ;ProyectoControl.c: 328: LATD0=1;
  4215  001506  808C               	bsf	3980,0,c	;volatile
  4216                           
  4217                           ;ProyectoControl.c: 329: LATD1=1;
  4218  001508  828C               	bsf	3980,1,c	;volatile
  4219                           
  4220                           ;ProyectoControl.c: 330: CCPR1L=PR2;
  4221  00150A  CFCB FFBE          	movff	4043,4030	;volatile
  4222                           
  4223                           ;ProyectoControl.c: 331: break;
  4224  00150E  0012               	return	
  4225  001510                     i2l318:
  4226                           
  4227                           ;ProyectoControl.c: 334: LATD0=0;
  4228  001510  908C               	bcf	3980,0,c	;volatile
  4229                           
  4230                           ;ProyectoControl.c: 335: LATD1=0;
  4231  001512  928C               	bcf	3980,1,c	;volatile
  4232                           
  4233                           ;ProyectoControl.c: 336: CCPR1L=0;
  4234  001514  0E00               	movlw	0
  4235  001516  6EBE               	movwf	190,c	;volatile
  4236                           
  4237                           ;ProyectoControl.c: 337: break;
  4238  001518  0012               	return	
  4239  00151A                     i2l319:
  4240                           
  4241                           ;ProyectoControl.c: 341: LATD0=1;
  4242  00151A  808C               	bsf	3980,0,c	;volatile
  4243                           
  4244                           ;ProyectoControl.c: 342: LATD1=0;
  4245  00151C  928C               	bcf	3980,1,c	;volatile
  4246                           
  4247                           ;ProyectoControl.c: 343: CCPR1L=0.7*PR2;
  4248  00151E  0E33               	movlw	51
  4249  001520  6E10               	movwf	___ftmul@f2^0,c
  4250  001522  0E33               	movlw	51
  4251  001524  6E11               	movwf	(___ftmul@f2+1)^0,c
  4252  001526  0E3F               	movlw	63
  4253  001528  6E12               	movwf	(___ftmul@f2+2)^0,c
  4254  00152A  50CB               	movf	203,w,c	;volatile
  4255  00152C  EC9B  F00C         	call	___lbtoft
  4256  001530  C009  F00D         	movff	?___lbtoft,___ftmul@f1
  4257  001534  C00A  F00E         	movff	?___lbtoft+1,___ftmul@f1+1
  4258  001538  C00B  F00F         	movff	?___lbtoft+2,___ftmul@f1+2
  4259  00153C  EC23  F008         	call	___ftmul	;wreg free
  4260  001540  C00D  F01C         	movff	?___ftmul,___fttol@f1
  4261  001544  C00E  F01D         	movff	?___ftmul+1,___fttol@f1+1
  4262  001548  C00F  F01E         	movff	?___ftmul+2,___fttol@f1+2
  4263  00154C  EC10  F009         	call	___fttol	;wreg free
  4264  001550  501C               	movf	?___fttol^0,w,c
  4265  001552  6EBE               	movwf	190,c	;volatile
  4266                           
  4267                           ;ProyectoControl.c: 344: break;
  4268  001554  0012               	return	
  4269  001556                     i2l320:
  4270                           
  4271                           ;ProyectoControl.c: 347: LATD0=0;
  4272  001556  908C               	bcf	3980,0,c	;volatile
  4273                           
  4274                           ;ProyectoControl.c: 348: LATD1=1;
  4275  001558  828C               	bsf	3980,1,c	;volatile
  4276                           
  4277                           ;ProyectoControl.c: 349: CCPR1L=0.7*PR2;
  4278  00155A  0E33               	movlw	51
  4279  00155C  6E10               	movwf	___ftmul@f2^0,c
  4280  00155E  0E33               	movlw	51
  4281  001560  6E11               	movwf	(___ftmul@f2+1)^0,c
  4282  001562  0E3F               	movlw	63
  4283  001564  6E12               	movwf	(___ftmul@f2+2)^0,c
  4284  001566  50CB               	movf	203,w,c	;volatile
  4285  001568  EC9B  F00C         	call	___lbtoft
  4286  00156C  C009  F00D         	movff	?___lbtoft,___ftmul@f1
  4287  001570  C00A  F00E         	movff	?___lbtoft+1,___ftmul@f1+1
  4288  001574  C00B  F00F         	movff	?___lbtoft+2,___ftmul@f1+2
  4289  001578  EC23  F008         	call	___ftmul	;wreg free
  4290  00157C  C00D  F01C         	movff	?___ftmul,___fttol@f1
  4291  001580  C00E  F01D         	movff	?___ftmul+1,___fttol@f1+1
  4292  001584  C00F  F01E         	movff	?___ftmul+2,___fttol@f1+2
  4293  001588  EC10  F009         	call	___fttol	;wreg free
  4294  00158C  501C               	movf	?___fttol^0,w,c
  4295  00158E  6EBE               	movwf	190,c	;volatile
  4296                           
  4297                           ;ProyectoControl.c: 350: break;
  4298  001590  0012               	return	
  4299  001592                     i2l2422:
  4300  001592  502B               	movf	LecturaEntrada@entrada^0,w,c
  4301                           
  4302                           ; Switch size 1, requested type "simple"
  4303                           ; Number of cases is 4, Range of values is 82 to 115
  4304                           ; switch strategies available:
  4305                           ; Name         Instructions Cycles
  4306                           ; simple_byte           13     7 (average)
  4307                           ;	Chosen strategy is simple_byte
  4308  001594  0A52               	xorlw	82	; case 82
  4309  001596  B4D8               	btfsc	status,2,c
  4310  001598  D7BB               	goto	i2l318
  4311  00159A  0A01               	xorlw	1	; case 83
  4312  00159C  B4D8               	btfsc	status,2,c
  4313  00159E  D7DB               	goto	i2l320
  4314  0015A0  0A21               	xorlw	33	; case 114
  4315  0015A2  B4D8               	btfsc	status,2,c
  4316  0015A4  D7B0               	goto	i2l316
  4317  0015A6  0A01               	xorlw	1	; case 115
  4318  0015A8  A4D8               	btfss	status,2,c
  4319  0015AA  0012               	return	
  4320  0015AC  D7B6               	goto	i2l319
  4321  0015AE                     __end_of_LecturaEntrada:
  4322                           	callstack 0
  4323                           
  4324 ;; *************** function ___lbtoft *****************
  4325 ;; Defined at:
  4326 ;;		line 27 in file "C:\Program Files\Microchip\xc8\v2.32\pic\sources\c90\common\lbtoft.c"
  4327 ;; Parameters:    Size  Location     Type
  4328 ;;  c               1    wreg     unsigned char 
  4329 ;; Auto vars:     Size  Location     Type
  4330 ;;  c               1   11[COMRAM] unsigned char 
  4331 ;; Return value:  Size  Location     Type
  4332 ;;                  3    8[COMRAM] float 
  4333 ;; Registers used:
  4334 ;;		wreg, status,2, status,0, cstack
  4335 ;; Tracked objects:
  4336 ;;		On entry : 0/0
  4337 ;;		On exit  : 0/0
  4338 ;;		Unchanged: 0/0
  4339 ;; Data sizes:     COMRAM   BANK0   BANK1   BANK2   BANK3   BANK4   BANK5   BANK6   BANK7
  4340 ;;      Params:         3       0       0       0       0       0       0       0       0
  4341 ;;      Locals:         1       0       0       0       0       0       0       0       0
  4342 ;;      Temps:          0       0       0       0       0       0       0       0       0
  4343 ;;      Totals:         4       0       0       0       0       0       0       0       0
  4344 ;;Total ram usage:        4 bytes
  4345 ;; Hardware stack levels used: 1
  4346 ;; Hardware stack levels required when called: 1
  4347 ;; This function calls:
  4348 ;;		i2___ftpack
  4349 ;; This function is called by:
  4350 ;;		_LecturaEntrada
  4351 ;; This function uses a non-reentrant model
  4352 ;;
  4353                           
  4354                           	psect	text29
  4355  001936                     __ptext29:
  4356                           	callstack 0
  4357  001936                     ___lbtoft:
  4358                           	callstack 23
  4359                           
  4360                           ;incstack = 0
  4361                           ;___lbtoft@c stored from wreg
  4362  001936  6E0C               	movwf	___lbtoft@c^0,c
  4363  001938  500C               	movf	___lbtoft@c^0,w,c
  4364  00193A  6E01               	movwf	i2___ftpack@arg^0,c
  4365  00193C  6A02               	clrf	(i2___ftpack@arg+1)^0,c
  4366  00193E  6A03               	clrf	(i2___ftpack@arg+2)^0,c
  4367  001940  0E8E               	movlw	142
  4368  001942  6E04               	movwf	i2___ftpack@exp^0,c
  4369  001944  0E00               	movlw	0
  4370  001946  6E05               	movwf	i2___ftpack@sign^0,c
  4371  001948  EC2A  F00A         	call	i2___ftpack	;wreg free
  4372  00194C  C001  F009         	movff	?i2___ftpack,?___lbtoft
  4373  001950  C002  F00A         	movff	?i2___ftpack+1,?___lbtoft+1
  4374  001954  C003  F00B         	movff	?i2___ftpack+2,?___lbtoft+2
  4375  001958  0012               	return		;funcret
  4376  00195A                     __end_of___lbtoft:
  4377                           	callstack 0
  4378                           
  4379 ;; *************** function ___fttol *****************
  4380 ;; Defined at:
  4381 ;;		line 44 in file "C:\Program Files\Microchip\xc8\v2.32\pic\sources\c90\common\fttol.c"
  4382 ;; Parameters:    Size  Location     Type
  4383 ;;  f1              3   27[COMRAM] float 
  4384 ;; Auto vars:     Size  Location     Type
  4385 ;;  lval            4   37[COMRAM] unsigned long 
  4386 ;;  exp1            1   41[COMRAM] unsigned char 
  4387 ;;  sign1           1   36[COMRAM] unsigned char 
  4388 ;; Return value:  Size  Location     Type
  4389 ;;                  4   27[COMRAM] long 
  4390 ;; Registers used:
  4391 ;;		wreg, status,2, status,0
  4392 ;; Tracked objects:
  4393 ;;		On entry : 0/0
  4394 ;;		On exit  : 0/0
  4395 ;;		Unchanged: 0/0
  4396 ;; Data sizes:     COMRAM   BANK0   BANK1   BANK2   BANK3   BANK4   BANK5   BANK6   BANK7
  4397 ;;      Params:         4       0       0       0       0       0       0       0       0
  4398 ;;      Locals:         6       0       0       0       0       0       0       0       0
  4399 ;;      Temps:          5       0       0       0       0       0       0       0       0
  4400 ;;      Totals:        15       0       0       0       0       0       0       0       0
  4401 ;;Total ram usage:       15 bytes
  4402 ;; Hardware stack levels used: 1
  4403 ;; This function calls:
  4404 ;;		Nothing
  4405 ;; This function is called by:
  4406 ;;		_LecturaEntrada
  4407 ;; This function uses a non-reentrant model
  4408 ;;
  4409                           
  4410                           	psect	text30
  4411  001220                     __ptext30:
  4412                           	callstack 0
  4413  001220                     ___fttol:
  4414                           	callstack 24
  4415                           
  4416                           ;incstack = 0
  4417  001220  C01E  F020         	movff	___fttol@f1+2,??___fttol
  4418  001224  6A21               	clrf	(??___fttol+1)^0,c
  4419  001226  6A22               	clrf	(??___fttol+2)^0,c
  4420  001228  341D               	rlcf	(___fttol@f1+1)^0,w,c
  4421  00122A  3620               	rlcf	??___fttol^0,f,c
  4422  00122C  E301               	bnc	u164_41
  4423  00122E  8021               	bsf	(??___fttol+1)^0,0,c
  4424  001230                     u164_41:
  4425  001230  5020               	movf	??___fttol^0,w,c
  4426  001232  6E2A               	movwf	___fttol@exp1^0,c
  4427  001234  502A               	movf	___fttol@exp1^0,w,c
  4428  001236  A4D8               	btfss	status,2,c
  4429  001238  D009               	goto	i2l2172
  4430  00123A                     i2u165_40:
  4431  00123A  0E00               	movlw	0
  4432  00123C  6E1C               	movwf	?___fttol^0,c
  4433  00123E  0E00               	movlw	0
  4434  001240  6E1D               	movwf	(?___fttol+1)^0,c
  4435  001242  0E00               	movlw	0
  4436  001244  6E1E               	movwf	(?___fttol+2)^0,c
  4437  001246  0E00               	movlw	0
  4438  001248  6E1F               	movwf	(?___fttol+3)^0,c
  4439  00124A  0012               	return	
  4440  00124C                     i2l2172:
  4441  00124C  0E17               	movlw	23
  4442  00124E  6E20               	movwf	??___fttol^0,c
  4443  001250  C01C  F021         	movff	___fttol@f1,??___fttol+1
  4444  001254  C01D  F022         	movff	___fttol@f1+1,??___fttol+2
  4445  001258  C01E  F023         	movff	___fttol@f1+2,??___fttol+3
  4446  00125C  2820               	incf	??___fttol^0,w,c
  4447  00125E  6E24               	movwf	(??___fttol+4)^0,c
  4448  001260  D004               	goto	i2u166_40
  4449  001262                     i2u166_45:
  4450  001262  90D8               	bcf	status,0,c
  4451  001264  3223               	rrcf	(??___fttol+3)^0,f,c
  4452  001266  3222               	rrcf	(??___fttol+2)^0,f,c
  4453  001268  3221               	rrcf	(??___fttol+1)^0,f,c
  4454  00126A                     i2u166_40:
  4455  00126A  2E24               	decfsz	(??___fttol+4)^0,f,c
  4456  00126C  D7FA               	goto	i2u166_45
  4457  00126E  5021               	movf	(??___fttol+1)^0,w,c
  4458  001270  6E25               	movwf	___fttol@sign1^0,c
  4459  001272  8E1D               	bsf	(___fttol@f1+1)^0,7,c
  4460  001274  0EFF               	movlw	255
  4461  001276  161C               	andwf	___fttol@f1^0,f,c
  4462  001278  0EFF               	movlw	255
  4463  00127A  161D               	andwf	(___fttol@f1+1)^0,f,c
  4464  00127C  0E00               	movlw	0
  4465  00127E  161E               	andwf	(___fttol@f1+2)^0,f,c
  4466  001280  501C               	movf	___fttol@f1^0,w,c
  4467  001282  6E26               	movwf	___fttol@lval^0,c
  4468  001284  501D               	movf	(___fttol@f1+1)^0,w,c
  4469  001286  6E27               	movwf	(___fttol@lval+1)^0,c
  4470  001288  501E               	movf	(___fttol@f1+2)^0,w,c
  4471  00128A  6E28               	movwf	(___fttol@lval+2)^0,c
  4472  00128C  6A29               	clrf	(___fttol@lval+3)^0,c
  4473  00128E  0E8E               	movlw	142
  4474  001290  5E2A               	subwf	___fttol@exp1^0,f,c
  4475  001292  AE2A               	btfss	___fttol@exp1^0,7,c
  4476  001294  D00D               	goto	i2l2194
  4477  001296  502A               	movf	___fttol@exp1^0,w,c
  4478  001298  0A80               	xorlw	128
  4479  00129A  0F8F               	addlw	143
  4480  00129C  A0D8               	btfss	status,0,c
  4481  00129E  D7CD               	goto	i2u165_40
  4482  0012A0                     i2l2190:
  4483  0012A0  90D8               	bcf	status,0,c
  4484  0012A2  3229               	rrcf	(___fttol@lval+3)^0,f,c
  4485  0012A4  3228               	rrcf	(___fttol@lval+2)^0,f,c
  4486  0012A6  3227               	rrcf	(___fttol@lval+1)^0,f,c
  4487  0012A8  3226               	rrcf	___fttol@lval^0,f,c
  4488  0012AA  3E2A               	incfsz	___fttol@exp1^0,f,c
  4489  0012AC  D7F9               	goto	i2l2190
  4490  0012AE  D00D               	goto	i2u170_40
  4491  0012B0                     i2l2194:
  4492  0012B0  0E17               	movlw	23
  4493  0012B2  642A               	cpfsgt	___fttol@exp1^0,c
  4494  0012B4  D007               	goto	i2l2202
  4495  0012B6  D7C1               	goto	i2u165_40
  4496  0012B8                     i2l2200:
  4497  0012B8  90D8               	bcf	status,0,c
  4498  0012BA  3626               	rlcf	___fttol@lval^0,f,c
  4499  0012BC  3627               	rlcf	(___fttol@lval+1)^0,f,c
  4500  0012BE  3628               	rlcf	(___fttol@lval+2)^0,f,c
  4501  0012C0  3629               	rlcf	(___fttol@lval+3)^0,f,c
  4502  0012C2  062A               	decf	___fttol@exp1^0,f,c
  4503  0012C4                     i2l2202:
  4504  0012C4  502A               	movf	___fttol@exp1^0,w,c
  4505  0012C6  A4D8               	btfss	status,2,c
  4506  0012C8  D7F7               	goto	i2l2200
  4507  0012CA                     i2u170_40:
  4508  0012CA  5025               	movf	___fttol@sign1^0,w,c
  4509  0012CC  B4D8               	btfsc	status,2,c
  4510  0012CE  D008               	goto	i2l2208
  4511  0012D0  1E29               	comf	(___fttol@lval+3)^0,f,c
  4512  0012D2  1E28               	comf	(___fttol@lval+2)^0,f,c
  4513  0012D4  1E27               	comf	(___fttol@lval+1)^0,f,c
  4514  0012D6  6C26               	negf	___fttol@lval^0,c
  4515  0012D8  0E00               	movlw	0
  4516  0012DA  2227               	addwfc	(___fttol@lval+1)^0,f,c
  4517  0012DC  2228               	addwfc	(___fttol@lval+2)^0,f,c
  4518  0012DE  2229               	addwfc	(___fttol@lval+3)^0,f,c
  4519  0012E0                     i2l2208:
  4520  0012E0  C026  F01C         	movff	___fttol@lval,?___fttol
  4521  0012E4  C027  F01D         	movff	___fttol@lval+1,?___fttol+1
  4522  0012E8  C028  F01E         	movff	___fttol@lval+2,?___fttol+2
  4523  0012EC  C029  F01F         	movff	___fttol@lval+3,?___fttol+3
  4524  0012F0  0012               	return		;funcret
  4525  0012F2                     __end_of___fttol:
  4526                           	callstack 0
  4527                           
  4528 ;; *************** function ___ftmul *****************
  4529 ;; Defined at:
  4530 ;;		line 62 in file "C:\Program Files\Microchip\xc8\v2.32\pic\sources\c90\common\ftmul.c"
  4531 ;; Parameters:    Size  Location     Type
  4532 ;;  f1              3   12[COMRAM] float 
  4533 ;;  f2              3   15[COMRAM] float 
  4534 ;; Auto vars:     Size  Location     Type
  4535 ;;  f3_as_produc    3   22[COMRAM] unsigned um
  4536 ;;  sign            1   26[COMRAM] unsigned char 
  4537 ;;  cntr            1   25[COMRAM] unsigned char 
  4538 ;;  exp             1   21[COMRAM] unsigned char 
  4539 ;; Return value:  Size  Location     Type
  4540 ;;                  3   12[COMRAM] float 
  4541 ;; Registers used:
  4542 ;;		wreg, status,2, status,0, cstack
  4543 ;; Tracked objects:
  4544 ;;		On entry : 0/0
  4545 ;;		On exit  : 0/0
  4546 ;;		Unchanged: 0/0
  4547 ;; Data sizes:     COMRAM   BANK0   BANK1   BANK2   BANK3   BANK4   BANK5   BANK6   BANK7
  4548 ;;      Params:         6       0       0       0       0       0       0       0       0
  4549 ;;      Locals:         6       0       0       0       0       0       0       0       0
  4550 ;;      Temps:          3       0       0       0       0       0       0       0       0
  4551 ;;      Totals:        15       0       0       0       0       0       0       0       0
  4552 ;;Total ram usage:       15 bytes
  4553 ;; Hardware stack levels used: 1
  4554 ;; Hardware stack levels required when called: 1
  4555 ;; This function calls:
  4556 ;;		i2___ftpack
  4557 ;; This function is called by:
  4558 ;;		_LecturaEntrada
  4559 ;; This function uses a non-reentrant model
  4560 ;;
  4561                           
  4562                           	psect	text31
  4563  001046                     __ptext31:
  4564                           	callstack 0
  4565  001046                     ___ftmul:
  4566                           	callstack 23
  4567                           
  4568                           ;incstack = 0
  4569  001046  C00F  F013         	movff	___ftmul@f1+2,??___ftmul
  4570  00104A  6A14               	clrf	(??___ftmul+1)^0,c
  4571  00104C  6A15               	clrf	(??___ftmul+2)^0,c
  4572  00104E  340E               	rlcf	(___ftmul@f1+1)^0,w,c
  4573  001050  3613               	rlcf	??___ftmul^0,f,c
  4574  001052  E301               	bnc	u155_41
  4575  001054  8014               	bsf	(??___ftmul+1)^0,0,c
  4576  001056                     u155_41:
  4577  001056  5013               	movf	??___ftmul^0,w,c
  4578  001058  6E16               	movwf	___ftmul@exp^0,c
  4579  00105A  5016               	movf	___ftmul@exp^0,w,c
  4580  00105C  A4D8               	btfss	status,2,c
  4581  00105E  D007               	goto	i2l2106
  4582  001060  0E00               	movlw	0
  4583  001062  6E0D               	movwf	?___ftmul^0,c
  4584  001064  0E00               	movlw	0
  4585  001066  6E0E               	movwf	(?___ftmul+1)^0,c
  4586  001068  0E00               	movlw	0
  4587  00106A  6E0F               	movwf	(?___ftmul+2)^0,c
  4588  00106C  0012               	return	
  4589  00106E                     i2l2106:
  4590  00106E  C012  F013         	movff	___ftmul@f2+2,??___ftmul
  4591  001072  6A14               	clrf	(??___ftmul+1)^0,c
  4592  001074  6A15               	clrf	(??___ftmul+2)^0,c
  4593  001076  3411               	rlcf	(___ftmul@f2+1)^0,w,c
  4594  001078  3613               	rlcf	??___ftmul^0,f,c
  4595  00107A  E301               	bnc	u157_41
  4596  00107C  8014               	bsf	(??___ftmul+1)^0,0,c
  4597  00107E                     u157_41:
  4598  00107E  5013               	movf	??___ftmul^0,w,c
  4599  001080  6E1B               	movwf	___ftmul@sign^0,c
  4600  001082  501B               	movf	___ftmul@sign^0,w,c
  4601  001084  A4D8               	btfss	status,2,c
  4602  001086  D007               	goto	i2l2112
  4603  001088  0E00               	movlw	0
  4604  00108A  6E0D               	movwf	?___ftmul^0,c
  4605  00108C  0E00               	movlw	0
  4606  00108E  6E0E               	movwf	(?___ftmul+1)^0,c
  4607  001090  0E00               	movlw	0
  4608  001092  6E0F               	movwf	(?___ftmul+2)^0,c
  4609  001094  0012               	return	
  4610  001096                     i2l2112:
  4611  001096  501B               	movf	___ftmul@sign^0,w,c
  4612  001098  0F7B               	addlw	123
  4613  00109A  2616               	addwf	___ftmul@exp^0,f,c
  4614  00109C  C00F  F01B         	movff	___ftmul@f1+2,___ftmul@sign
  4615  0010A0  5012               	movf	(___ftmul@f2+2)^0,w,c
  4616  0010A2  1A1B               	xorwf	___ftmul@sign^0,f,c
  4617  0010A4  0E80               	movlw	128
  4618  0010A6  161B               	andwf	___ftmul@sign^0,f,c
  4619  0010A8  8E0E               	bsf	(___ftmul@f1+1)^0,7,c
  4620  0010AA  8E11               	bsf	(___ftmul@f2+1)^0,7,c
  4621  0010AC  0EFF               	movlw	255
  4622  0010AE  1610               	andwf	___ftmul@f2^0,f,c
  4623  0010B0  0EFF               	movlw	255
  4624  0010B2  1611               	andwf	(___ftmul@f2+1)^0,f,c
  4625  0010B4  0E00               	movlw	0
  4626  0010B6  1612               	andwf	(___ftmul@f2+2)^0,f,c
  4627  0010B8  0E00               	movlw	0
  4628  0010BA  6E17               	movwf	___ftmul@f3_as_product^0,c
  4629  0010BC  0E00               	movlw	0
  4630  0010BE  6E18               	movwf	(___ftmul@f3_as_product+1)^0,c
  4631  0010C0  0E00               	movlw	0
  4632  0010C2  6E19               	movwf	(___ftmul@f3_as_product+2)^0,c
  4633  0010C4  0E07               	movlw	7
  4634  0010C6  6E1A               	movwf	___ftmul@cntr^0,c
  4635  0010C8                     i2l2126:
  4636  0010C8  A00D               	btfss	___ftmul@f1^0,0,c
  4637  0010CA  D006               	goto	i2l2130
  4638  0010CC  5010               	movf	___ftmul@f2^0,w,c
  4639  0010CE  2617               	addwf	___ftmul@f3_as_product^0,f,c
  4640  0010D0  5011               	movf	(___ftmul@f2+1)^0,w,c
  4641  0010D2  2218               	addwfc	(___ftmul@f3_as_product+1)^0,f,c
  4642  0010D4  5012               	movf	(___ftmul@f2+2)^0,w,c
  4643  0010D6  2219               	addwfc	(___ftmul@f3_as_product+2)^0,f,c
  4644  0010D8                     i2l2130:
  4645  0010D8  90D8               	bcf	status,0,c
  4646  0010DA  320F               	rrcf	(___ftmul@f1+2)^0,f,c
  4647  0010DC  320E               	rrcf	(___ftmul@f1+1)^0,f,c
  4648  0010DE  320D               	rrcf	___ftmul@f1^0,f,c
  4649  0010E0  90D8               	bcf	status,0,c
  4650  0010E2  3610               	rlcf	___ftmul@f2^0,f,c
  4651  0010E4  3611               	rlcf	(___ftmul@f2+1)^0,f,c
  4652  0010E6  3612               	rlcf	(___ftmul@f2+2)^0,f,c
  4653  0010E8  2E1A               	decfsz	___ftmul@cntr^0,f,c
  4654  0010EA  D7EE               	goto	i2l2126
  4655  0010EC  0E09               	movlw	9
  4656  0010EE  6E1A               	movwf	___ftmul@cntr^0,c
  4657  0010F0                     i2l2136:
  4658  0010F0  A00D               	btfss	___ftmul@f1^0,0,c
  4659  0010F2  D006               	goto	i2l2140
  4660  0010F4  5010               	movf	___ftmul@f2^0,w,c
  4661  0010F6  2617               	addwf	___ftmul@f3_as_product^0,f,c
  4662  0010F8  5011               	movf	(___ftmul@f2+1)^0,w,c
  4663  0010FA  2218               	addwfc	(___ftmul@f3_as_product+1)^0,f,c
  4664  0010FC  5012               	movf	(___ftmul@f2+2)^0,w,c
  4665  0010FE  2219               	addwfc	(___ftmul@f3_as_product+2)^0,f,c
  4666  001100                     i2l2140:
  4667  001100  90D8               	bcf	status,0,c
  4668  001102  320F               	rrcf	(___ftmul@f1+2)^0,f,c
  4669  001104  320E               	rrcf	(___ftmul@f1+1)^0,f,c
  4670  001106  320D               	rrcf	___ftmul@f1^0,f,c
  4671  001108  90D8               	bcf	status,0,c
  4672  00110A  3219               	rrcf	(___ftmul@f3_as_product+2)^0,f,c
  4673  00110C  3218               	rrcf	(___ftmul@f3_as_product+1)^0,f,c
  4674  00110E  3217               	rrcf	___ftmul@f3_as_product^0,f,c
  4675  001110  2E1A               	decfsz	___ftmul@cntr^0,f,c
  4676  001112  D7EE               	goto	i2l2136
  4677  001114  C017  F001         	movff	___ftmul@f3_as_product,i2___ftpack@arg
  4678  001118  C018  F002         	movff	___ftmul@f3_as_product+1,i2___ftpack@arg+1
  4679  00111C  C019  F003         	movff	___ftmul@f3_as_product+2,i2___ftpack@arg+2
  4680  001120  C016  F004         	movff	___ftmul@exp,i2___ftpack@exp
  4681  001124  C01B  F005         	movff	___ftmul@sign,i2___ftpack@sign
  4682  001128  EC2A  F00A         	call	i2___ftpack	;wreg free
  4683  00112C  C001  F00D         	movff	?i2___ftpack,?___ftmul
  4684  001130  C002  F00E         	movff	?i2___ftpack+1,?___ftmul+1
  4685  001134  C003  F00F         	movff	?i2___ftpack+2,?___ftmul+2
  4686  001138  0012               	return		;funcret
  4687  00113A                     __end_of___ftmul:
  4688                           	callstack 0
  4689                           
  4690 ;; *************** function i2___ftpack *****************
  4691 ;; Defined at:
  4692 ;;		line 62 in file "C:\Program Files\Microchip\xc8\v2.32\pic\sources\c90\common\float.c"
  4693 ;; Parameters:    Size  Location     Type
  4694 ;;  arg             3    0[COMRAM] unsigned um
  4695 ;;  exp             1    3[COMRAM] unsigned char 
  4696 ;;  sign            1    4[COMRAM] unsigned char 
  4697 ;; Auto vars:     Size  Location     Type
  4698 ;;		None
  4699 ;; Return value:  Size  Location     Type
  4700 ;;                  3    0[COMRAM] float 
  4701 ;; Registers used:
  4702 ;;		wreg, status,2, status,0
  4703 ;; Tracked objects:
  4704 ;;		On entry : 0/0
  4705 ;;		On exit  : 0/0
  4706 ;;		Unchanged: 0/0
  4707 ;; Data sizes:     COMRAM   BANK0   BANK1   BANK2   BANK3   BANK4   BANK5   BANK6   BANK7
  4708 ;;      Params:         5       0       0       0       0       0       0       0       0
  4709 ;;      Locals:         0       0       0       0       0       0       0       0       0
  4710 ;;      Temps:          3       0       0       0       0       0       0       0       0
  4711 ;;      Totals:         8       0       0       0       0       0       0       0       0
  4712 ;;Total ram usage:        8 bytes
  4713 ;; Hardware stack levels used: 1
  4714 ;; This function calls:
  4715 ;;		Nothing
  4716 ;; This function is called by:
  4717 ;;		___ftmul
  4718 ;;		___lbtoft
  4719 ;; This function uses a non-reentrant model
  4720 ;;
  4721                           
  4722                           	psect	text32
  4723  001454                     __ptext32:
  4724                           	callstack 0
  4725  001454                     i2___ftpack:
  4726                           	callstack 23
  4727                           
  4728                           ;incstack = 0
  4729  001454  5004               	movf	i2___ftpack@exp^0,w,c
  4730  001456  B4D8               	btfsc	status,2,c
  4731  001458  D005               	goto	i2u121_40
  4732  00145A  5001               	movf	i2___ftpack@arg^0,w,c
  4733  00145C  1002               	iorwf	(i2___ftpack@arg+1)^0,w,c
  4734  00145E  1003               	iorwf	(i2___ftpack@arg+2)^0,w,c
  4735  001460  A4D8               	btfss	status,2,c
  4736  001462  D00C               	goto	i2l1938
  4737  001464                     i2u121_40:
  4738  001464  0E00               	movlw	0
  4739  001466  6E01               	movwf	?i2___ftpack^0,c
  4740  001468  0E00               	movlw	0
  4741  00146A  6E02               	movwf	(?i2___ftpack+1)^0,c
  4742  00146C  0E00               	movlw	0
  4743  00146E  6E03               	movwf	(?i2___ftpack+2)^0,c
  4744  001470  0012               	return	
  4745  001472                     i2l1936:
  4746  001472  2A04               	incf	i2___ftpack@exp^0,f,c
  4747  001474  90D8               	bcf	status,0,c
  4748  001476  3203               	rrcf	(i2___ftpack@arg+2)^0,f,c
  4749  001478  3202               	rrcf	(i2___ftpack@arg+1)^0,f,c
  4750  00147A  3201               	rrcf	i2___ftpack@arg^0,f,c
  4751  00147C                     i2l1938:
  4752  00147C  0E00               	movlw	0
  4753  00147E  1401               	andwf	i2___ftpack@arg^0,w,c
  4754  001480  6E06               	movwf	??i2___ftpack^0,c
  4755  001482  0E00               	movlw	0
  4756  001484  1402               	andwf	(i2___ftpack@arg+1)^0,w,c
  4757  001486  6E07               	movwf	(??i2___ftpack+1)^0,c
  4758  001488  0EFE               	movlw	254
  4759  00148A  1403               	andwf	(i2___ftpack@arg+2)^0,w,c
  4760  00148C  6E08               	movwf	(??i2___ftpack+2)^0,c
  4761  00148E  5006               	movf	??i2___ftpack^0,w,c
  4762  001490  1007               	iorwf	(??i2___ftpack+1)^0,w,c
  4763  001492  1008               	iorwf	(??i2___ftpack+2)^0,w,c
  4764  001494  B4D8               	btfsc	status,2,c
  4765  001496  D00C               	goto	i2l1944
  4766  001498  D7EC               	goto	i2l1936
  4767  00149A                     i2l1940:
  4768  00149A  2A04               	incf	i2___ftpack@exp^0,f,c
  4769  00149C  0E01               	movlw	1
  4770  00149E  2601               	addwf	i2___ftpack@arg^0,f,c
  4771  0014A0  0E00               	movlw	0
  4772  0014A2  2202               	addwfc	(i2___ftpack@arg+1)^0,f,c
  4773  0014A4  0E00               	movlw	0
  4774  0014A6  2203               	addwfc	(i2___ftpack@arg+2)^0,f,c
  4775  0014A8  90D8               	bcf	status,0,c
  4776  0014AA  3203               	rrcf	(i2___ftpack@arg+2)^0,f,c
  4777  0014AC  3202               	rrcf	(i2___ftpack@arg+1)^0,f,c
  4778  0014AE  3201               	rrcf	i2___ftpack@arg^0,f,c
  4779  0014B0                     i2l1944:
  4780  0014B0  0E00               	movlw	0
  4781  0014B2  1401               	andwf	i2___ftpack@arg^0,w,c
  4782  0014B4  6E06               	movwf	??i2___ftpack^0,c
  4783  0014B6  0E00               	movlw	0
  4784  0014B8  1402               	andwf	(i2___ftpack@arg+1)^0,w,c
  4785  0014BA  6E07               	movwf	(??i2___ftpack+1)^0,c
  4786  0014BC  0EFF               	movlw	255
  4787  0014BE  1403               	andwf	(i2___ftpack@arg+2)^0,w,c
  4788  0014C0  6E08               	movwf	(??i2___ftpack+2)^0,c
  4789  0014C2  5006               	movf	??i2___ftpack^0,w,c
  4790  0014C4  1007               	iorwf	(??i2___ftpack+1)^0,w,c
  4791  0014C6  1008               	iorwf	(??i2___ftpack+2)^0,w,c
  4792  0014C8  B4D8               	btfsc	status,2,c
  4793  0014CA  D006               	goto	i2l1948
  4794  0014CC  D7E6               	goto	i2l1940
  4795  0014CE                     i2l1946:
  4796  0014CE  0604               	decf	i2___ftpack@exp^0,f,c
  4797  0014D0  90D8               	bcf	status,0,c
  4798  0014D2  3601               	rlcf	i2___ftpack@arg^0,f,c
  4799  0014D4  3602               	rlcf	(i2___ftpack@arg+1)^0,f,c
  4800  0014D6  3603               	rlcf	(i2___ftpack@arg+2)^0,f,c
  4801  0014D8                     i2l1948:
  4802  0014D8  BE02               	btfsc	(i2___ftpack@arg+1)^0,7,c
  4803  0014DA  D003               	goto	i2u125_40
  4804  0014DC  0E02               	movlw	2
  4805  0014DE  6004               	cpfslt	i2___ftpack@exp^0,c
  4806  0014E0  D7F6               	goto	i2l1946
  4807  0014E2                     i2u125_40:
  4808  0014E2  A004               	btfss	i2___ftpack@exp^0,0,c
  4809  0014E4  9E02               	bcf	(i2___ftpack@arg+1)^0,7,c
  4810  0014E6  90D8               	bcf	status,0,c
  4811  0014E8  3204               	rrcf	i2___ftpack@exp^0,f,c
  4812  0014EA  5004               	movf	i2___ftpack@exp^0,w,c
  4813  0014EC  1203               	iorwf	(i2___ftpack@arg+2)^0,f,c
  4814  0014EE  5005               	movf	i2___ftpack@sign^0,w,c
  4815  0014F0  A4D8               	btfss	status,2,c
  4816  0014F2  8E03               	bsf	(i2___ftpack@arg+2)^0,7,c
  4817  0014F4  C001  F001         	movff	i2___ftpack@arg,?i2___ftpack
  4818  0014F8  C002  F002         	movff	i2___ftpack@arg+1,?i2___ftpack+1
  4819  0014FC  C003  F003         	movff	i2___ftpack@arg+2,?i2___ftpack+2
  4820  001500  0012               	return		;funcret
  4821  001502                     __end_ofi2___ftpack:
  4822                           	callstack 0
  4823                           
  4824                           	psect	rparam
  4825  0000                     
  4826                           	psect	temp
  4827  000034                     btemp:
  4828                           	callstack 0
  4829  000034                     	ds	1
  4830  0000                     int$flags	set	btemp
  4831  0000                     wtemp8	set	btemp+1
  4832  0000                     ttemp5	set	btemp+1
  4833  0000                     ttemp6	set	btemp+4
  4834  0000                     ttemp7	set	btemp+8
  4835                           
  4836                           	psect	idloc
  4837                           
  4838                           ;Config register IDLOC0 @ 0x200000
  4839                           ;	unspecified, using default values
  4840  200000                     	org	2097152
  4841  200000  FF                 	db	255
  4842                           
  4843                           ;Config register IDLOC1 @ 0x200001
  4844                           ;	unspecified, using default values
  4845  200001                     	org	2097153
  4846  200001  FF                 	db	255
  4847                           
  4848                           ;Config register IDLOC2 @ 0x200002
  4849                           ;	unspecified, using default values
  4850  200002                     	org	2097154
  4851  200002  FF                 	db	255
  4852                           
  4853                           ;Config register IDLOC3 @ 0x200003
  4854                           ;	unspecified, using default values
  4855  200003                     	org	2097155
  4856  200003  FF                 	db	255
  4857                           
  4858                           ;Config register IDLOC4 @ 0x200004
  4859                           ;	unspecified, using default values
  4860  200004                     	org	2097156
  4861  200004  FF                 	db	255
  4862                           
  4863                           ;Config register IDLOC5 @ 0x200005
  4864                           ;	unspecified, using default values
  4865  200005                     	org	2097157
  4866  200005  FF                 	db	255
  4867                           
  4868                           ;Config register IDLOC6 @ 0x200006
  4869                           ;	unspecified, using default values
  4870  200006                     	org	2097158
  4871  200006  FF                 	db	255
  4872                           
  4873                           ;Config register IDLOC7 @ 0x200007
  4874                           ;	unspecified, using default values
  4875  200007                     	org	2097159
  4876  200007  FF                 	db	255
  4877                           
  4878                           	psect	config
  4879                           
  4880                           ;Config register CONFIG1L @ 0x300000
  4881                           ;	unspecified, using default values
  4882                           ;	PLL Prescaler Selection bits
  4883                           ;	PLLDIV = 0x0, unprogrammed default
  4884                           ;	System Clock Postscaler Selection bits
  4885                           ;	CPUDIV = 0x0, unprogrammed default
  4886                           ;	USB Clock Selection bit (used in Full-Speed USB mode only; UCFG:FSEN = 1)
  4887                           ;	USBDIV = 0x0, unprogrammed default
  4888  300000                     	org	3145728
  4889  300000  00                 	db	0
  4890                           
  4891                           ;Config register CONFIG1H @ 0x300001
  4892                           ;	Oscillator Selection bits
  4893                           ;	FOSC = INTOSC_EC, Internal oscillator, CLKO function on RA6, EC used by USB (INTCKO)
  4894                           ;	Fail-Safe Clock Monitor Enable bit
  4895                           ;	FCMEN = 0x0, unprogrammed default
  4896                           ;	Internal/External Oscillator Switchover bit
  4897                           ;	IESO = 0x0, unprogrammed default
  4898  300001                     	org	3145729
  4899  300001  09                 	db	9
  4900                           
  4901                           ;Config register CONFIG2L @ 0x300002
  4902                           ;	unspecified, using default values
  4903                           ;	Power-up Timer Enable bit
  4904                           ;	PWRT = 0x1, unprogrammed default
  4905                           ;	Brown-out Reset Enable bits
  4906                           ;	BOR = 0x3, unprogrammed default
  4907                           ;	Brown-out Reset Voltage bits
  4908                           ;	BORV = 0x3, unprogrammed default
  4909                           ;	USB Voltage Regulator Enable bit
  4910                           ;	VREGEN = 0x0, unprogrammed default
  4911  300002                     	org	3145730
  4912  300002  1F                 	db	31
  4913                           
  4914                           ;Config register CONFIG2H @ 0x300003
  4915                           ;	Watchdog Timer Enable bit
  4916                           ;	WDT = OFF, WDT disabled (control is placed on the SWDTEN bit)
  4917                           ;	Watchdog Timer Postscale Select bits
  4918                           ;	WDTPS = 0xF, unprogrammed default
  4919  300003                     	org	3145731
  4920  300003  1E                 	db	30
  4921                           
  4922                           ; Padding undefined space
  4923  300004                     	org	3145732
  4924  300004  FF                 	db	255
  4925                           
  4926                           ;Config register CONFIG3H @ 0x300005
  4927                           ;	unspecified, using default values
  4928                           ;	CCP2 MUX bit
  4929                           ;	CCP2MX = 0x1, unprogrammed default
  4930                           ;	PORTB A/D Enable bit
  4931                           ;	PBADEN = 0x1, unprogrammed default
  4932                           ;	Low-Power Timer 1 Oscillator Enable bit
  4933                           ;	LPT1OSC = 0x0, unprogrammed default
  4934                           ;	MCLR Pin Enable bit
  4935                           ;	MCLRE = 0x1, unprogrammed default
  4936  300005                     	org	3145733
  4937  300005  83                 	db	131
  4938                           
  4939                           ;Config register CONFIG4L @ 0x300006
  4940                           ;	Stack Full/Underflow Reset Enable bit
  4941                           ;	STVREN = 0x1, unprogrammed default
  4942                           ;	Single-Supply ICSP Enable bit
  4943                           ;	LVP = OFF, Single-Supply ICSP disabled
  4944                           ;	Dedicated In-Circuit Debug/Programming Port (ICPORT) Enable bit
  4945                           ;	ICPRT = 0x0, unprogrammed default
  4946                           ;	Extended Instruction Set Enable bit
  4947                           ;	XINST = 0x0, unprogrammed default
  4948                           ;	Background Debugger Enable bit
  4949                           ;	DEBUG = 0x1, unprogrammed default
  4950  300006                     	org	3145734
  4951  300006  81                 	db	129
  4952                           
  4953                           ; Padding undefined space
  4954  300007                     	org	3145735
  4955  300007  FF                 	db	255
  4956                           
  4957                           ;Config register CONFIG5L @ 0x300008
  4958                           ;	unspecified, using default values
  4959                           ;	Code Protection bit
  4960                           ;	CP0 = 0x1, unprogrammed default
  4961                           ;	Code Protection bit
  4962                           ;	CP1 = 0x1, unprogrammed default
  4963                           ;	Code Protection bit
  4964                           ;	CP2 = 0x1, unprogrammed default
  4965                           ;	Code Protection bit
  4966                           ;	CP3 = 0x1, unprogrammed default
  4967  300008                     	org	3145736
  4968  300008  0F                 	db	15
  4969                           
  4970                           ;Config register CONFIG5H @ 0x300009
  4971                           ;	unspecified, using default values
  4972                           ;	Boot Block Code Protection bit
  4973                           ;	CPB = 0x1, unprogrammed default
  4974                           ;	Data EEPROM Code Protection bit
  4975                           ;	CPD = 0x1, unprogrammed default
  4976  300009                     	org	3145737
  4977  300009  C0                 	db	192
  4978                           
  4979                           ;Config register CONFIG6L @ 0x30000A
  4980                           ;	unspecified, using default values
  4981                           ;	Write Protection bit
  4982                           ;	WRT0 = 0x1, unprogrammed default
  4983                           ;	Write Protection bit
  4984                           ;	WRT1 = 0x1, unprogrammed default
  4985                           ;	Write Protection bit
  4986                           ;	WRT2 = 0x1, unprogrammed default
  4987                           ;	Write Protection bit
  4988                           ;	WRT3 = 0x1, unprogrammed default
  4989  30000A                     	org	3145738
  4990  30000A  0F                 	db	15
  4991                           
  4992                           ;Config register CONFIG6H @ 0x30000B
  4993                           ;	unspecified, using default values
  4994                           ;	Configuration Register Write Protection bit
  4995                           ;	WRTC = 0x1, unprogrammed default
  4996                           ;	Boot Block Write Protection bit
  4997                           ;	WRTB = 0x1, unprogrammed default
  4998                           ;	Data EEPROM Write Protection bit
  4999                           ;	WRTD = 0x1, unprogrammed default
  5000  30000B                     	org	3145739
  5001  30000B  E0                 	db	224
  5002                           
  5003                           ;Config register CONFIG7L @ 0x30000C
  5004                           ;	unspecified, using default values
  5005                           ;	Table Read Protection bit
  5006                           ;	EBTR0 = 0x1, unprogrammed default
  5007                           ;	Table Read Protection bit
  5008                           ;	EBTR1 = 0x1, unprogrammed default
  5009                           ;	Table Read Protection bit
  5010                           ;	EBTR2 = 0x1, unprogrammed default
  5011                           ;	Table Read Protection bit
  5012                           ;	EBTR3 = 0x1, unprogrammed default
  5013  30000C                     	org	3145740
  5014  30000C  0F                 	db	15
  5015                           
  5016                           ;Config register CONFIG7H @ 0x30000D
  5017                           ;	unspecified, using default values
  5018                           ;	Boot Block Table Read Protection bit
  5019                           ;	EBTRB = 0x1, unprogrammed default
  5020  30000D                     	org	3145741
  5021  30000D  40                 	db	64
  5022                           tosu	equ	0xFFF
  5023                           tosh	equ	0xFFE
  5024                           tosl	equ	0xFFD
  5025                           stkptr	equ	0xFFC
  5026                           pclatu	equ	0xFFB
  5027                           pclath	equ	0xFFA
  5028                           pcl	equ	0xFF9
  5029                           tblptru	equ	0xFF8
  5030                           tblptrh	equ	0xFF7
  5031                           tblptrl	equ	0xFF6
  5032                           tablat	equ	0xFF5
  5033                           prodh	equ	0xFF4
  5034                           prodl	equ	0xFF3
  5035                           indf0	equ	0xFEF
  5036                           postinc0	equ	0xFEE
  5037                           postdec0	equ	0xFED
  5038                           preinc0	equ	0xFEC
  5039                           plusw0	equ	0xFEB
  5040                           fsr0h	equ	0xFEA
  5041                           fsr0l	equ	0xFE9
  5042                           wreg	equ	0xFE8
  5043                           indf1	equ	0xFE7
  5044                           postinc1	equ	0xFE6
  5045                           postdec1	equ	0xFE5
  5046                           preinc1	equ	0xFE4
  5047                           plusw1	equ	0xFE3
  5048                           fsr1h	equ	0xFE2
  5049                           fsr1l	equ	0xFE1
  5050                           bsr	equ	0xFE0
  5051                           indf2	equ	0xFDF
  5052                           postinc2	equ	0xFDE
  5053                           postdec2	equ	0xFDD
  5054                           preinc2	equ	0xFDC
  5055                           plusw2	equ	0xFDB
  5056                           fsr2h	equ	0xFDA
  5057                           fsr2l	equ	0xFD9
  5058                           status	equ	0xFD8

Data Sizes:
    Strings     52
    Constant    0
    Data        1
    BSS         7
    Persistent  0
    Stack       0

Auto Spaces:
    Space          Size  Autos    Used
    COMRAM           94     49      51
    BANK0           160     34      40
    BANK1           256      0       0
    BANK2           256      0       0
    BANK3           256      0       0
    BANK4           256      0       0
    BANK5           256      0       0
    BANK6           256      0       0
    BANK7           256      0       0

Pointer List with Targets:

    MensajeLCD_Var@a	PTR unsigned char  size(1) Largest target is 15
		 -> STR_4(CODE[12]), STR_3(CODE[11]), STR_2(CODE[15]), STR_1(CODE[14]), 


Critical Paths under _main in COMRAM

    None.

Critical Paths under _ISR in COMRAM

    _ISR->_LecturaEntrada
    i2_MensajeLCD_Var->i2_EscribeLCD_c
    i2_EscribeLCD_c->i2_EnviaDato
    i2_BorraLCD->i2_EnviaDato
    i2_EnviaDato->i2_RetardoLCD
    _LecturaEntrada->___fttol
    ___lbtoft->i2___ftpack
    ___fttol->___ftmul
    ___ftmul->___lbtoft

Critical Paths under _main in BANK0

    _main->_Duty
    ___lwtoft->___ftpack
    ___ftsub->___ftadd
    ___ftadd->___ftpack
    _MensajeLCD_Var->_EscribeLCD_c
    _EscribeLCD_c->_EnviaDato
    _InicializaLCD->_EnviaDato
    _Duty->___ftdiv
    ___ftdiv->___ftpack
    _BorraLCD->_EnviaDato
    _DireccionaLCD->_EnviaDato
    _EnviaDato->_RetardoLCD

Critical Paths under _ISR in BANK0

    None.

Critical Paths under _main in BANK1

    None.

Critical Paths under _ISR in BANK1

    None.

Critical Paths under _main in BANK2

    None.

Critical Paths under _ISR in BANK2

    None.

Critical Paths under _main in BANK3

    None.

Critical Paths under _ISR in BANK3

    None.

Critical Paths under _main in BANK4

    None.

Critical Paths under _ISR in BANK4

    None.

Critical Paths under _main in BANK5

    None.

Critical Paths under _ISR in BANK5

    None.

Critical Paths under _main in BANK6

    None.

Critical Paths under _ISR in BANK6

    None.

Critical Paths under _main in BANK7

    None.

Critical Paths under _ISR in BANK7

    None.

Call Graph Tables:

 ---------------------------------------------------------------------------------
 (Depth) Function   	        Calls       Base Space   Used Autos Params    Refs
 ---------------------------------------------------------------------------------
 (0) _main                                                 5     5      0   21348
                                             29 BANK0      5     5      0
                           _BorraLCD
                       _ConfiguraLCD
                         _Conversion
                      _DireccionaLCD
                               _Duty
                      _InicializaLCD
                     _MensajeLCD_Var
                            ___ftadd
                            ___ftsub
                           ___lwtoft
 ---------------------------------------------------------------------------------
 (1) ___lwtoft                                             3     0      3    2901
                                              8 BANK0      3     0      3
                         _Conversion (ARG)
                           ___ftpack
 ---------------------------------------------------------------------------------
 (1) ___ftsub                                              6     0      6    4646
                                             20 BANK0      6     0      6
                            ___ftadd
 ---------------------------------------------------------------------------------
 (2) ___ftadd                                             12     6      6    4149
                                              8 BANK0     12     6      6
                           ___ftpack
 ---------------------------------------------------------------------------------
 (1) _MensajeLCD_Var                                       1     0      1     429
                                              5 BANK0      1     0      1
                       _EscribeLCD_c
 ---------------------------------------------------------------------------------
 (2) _EscribeLCD_c                                         1     1      0     132
                                              4 BANK0      1     1      0
                          _EnviaDato
                        _HabilitaLCD
                         _RetardoLCD
 ---------------------------------------------------------------------------------
 (1) _InicializaLCD                                        0     0      0     220
                           _BorraLCD
                          _EnviaDato
                        _HabilitaLCD
                         _RetardoLCD
 ---------------------------------------------------------------------------------
 (1) _Duty                                                 6     0      6    8627
                                             23 BANK0      6     0      6
                           _BorraLCD
                         _Transmitir
                            ___ftdiv
                             ___ftge
 ---------------------------------------------------------------------------------
 (2) ___ftge                                               9     3      6    3936
                                              0 BANK0      9     3      6
 ---------------------------------------------------------------------------------
 (2) ___ftdiv                                             15     9      6    3743
                                              8 BANK0     15     9      6
                           ___ftpack
 ---------------------------------------------------------------------------------
 (2) ___ftpack                                             8     3      5    2727
                                              0 BANK0      8     3      5
 ---------------------------------------------------------------------------------
 (2) _Transmitir                                           1     1      0      22
                                              0 BANK0      1     1      0
 ---------------------------------------------------------------------------------
 (2) _BorraLCD                                             0     0      0     110
                          _EnviaDato
                        _HabilitaLCD
                         _RetardoLCD
 ---------------------------------------------------------------------------------
 (1) _DireccionaLCD                                        1     1      0     132
                                              4 BANK0      1     1      0
                          _EnviaDato
                        _HabilitaLCD
                         _RetardoLCD
 ---------------------------------------------------------------------------------
 (3) _EnviaDato                                            2     2      0      88
                                              2 BANK0      2     2      0
                        _HabilitaLCD
                         _RetardoLCD
 ---------------------------------------------------------------------------------
 (3) _RetardoLCD                                           2     2      0      22
                                              0 BANK0      2     2      0
 ---------------------------------------------------------------------------------
 (3) _HabilitaLCD                                          0     0      0       0
 ---------------------------------------------------------------------------------
 (1) _Conversion                                           4     2      2      22
                                              0 BANK0      4     2      2
 ---------------------------------------------------------------------------------
 (1) _ConfiguraLCD                                         1     1      0      66
                                              0 BANK0      1     1      0
 ---------------------------------------------------------------------------------
 Estimated maximum stack depth 3
 ---------------------------------------------------------------------------------
 (Depth) Function   	        Calls       Base Space   Used Autos Params    Refs
 ---------------------------------------------------------------------------------
 (5) _ISR                                                  6     6      0    2593
                                             43 COMRAM     6     6      0
                     _LecturaEntrada
                            _Recibir
                         i2_BorraLCD
                   i2_MensajeLCD_Var
                       i2_Transmitir
 ---------------------------------------------------------------------------------
 (6) i2_Transmitir                                         1     1      0      22
                                              0 COMRAM     1     1      0
 ---------------------------------------------------------------------------------
 (6) i2_MensajeLCD_Var                                     1     0      1     229
                                              5 COMRAM     1     0      1
                     i2_EscribeLCD_c
 ---------------------------------------------------------------------------------
 (7) i2_EscribeLCD_c                                       1     1      0     132
                                              4 COMRAM     1     1      0
                        i2_EnviaDato
                      i2_HabilitaLCD
                       i2_RetardoLCD
 ---------------------------------------------------------------------------------
 (6) i2_BorraLCD                                           0     0      0     110
                        i2_EnviaDato
                      i2_HabilitaLCD
                       i2_RetardoLCD
 ---------------------------------------------------------------------------------
 (8) i2_EnviaDato                                          2     2      0      88
                                              2 COMRAM     2     2      0
                      i2_HabilitaLCD
                       i2_RetardoLCD
 ---------------------------------------------------------------------------------
 (8) i2_RetardoLCD                                         2     2      0      22
                                              0 COMRAM     2     2      0
 ---------------------------------------------------------------------------------
 (8) i2_HabilitaLCD                                        0     0      0       0
 ---------------------------------------------------------------------------------
 (6) _Recibir                                              0     0      0       0
 ---------------------------------------------------------------------------------
 (6) _LecturaEntrada                                       1     1      0    2232
                                             42 COMRAM     1     1      0
                            ___ftmul
                            ___fttol
                           ___lbtoft
 ---------------------------------------------------------------------------------
 (7) ___lbtoft                                             4     1      3     409
                                              8 COMRAM     4     1      3
                         i2___ftpack
 ---------------------------------------------------------------------------------
 (7) ___fttol                                             15    11      4     530
                                             27 COMRAM    15    11      4
                            ___ftmul (ARG)
                           ___lbtoft (ARG)
 ---------------------------------------------------------------------------------
 (7) ___ftmul                                             15     9      6    1271
                                             12 COMRAM    15     9      6
                           ___lbtoft (ARG)
                         i2___ftpack
 ---------------------------------------------------------------------------------
 (8) i2___ftpack                                           8     3      5     387
                                              0 COMRAM     8     3      5
 ---------------------------------------------------------------------------------
 Estimated maximum stack depth 8
 ---------------------------------------------------------------------------------

 Call Graph Graphs:

 _main (ROOT)
   _BorraLCD
     _EnviaDato
       _HabilitaLCD
       _RetardoLCD
     _HabilitaLCD
     _RetardoLCD
   _ConfiguraLCD
   _Conversion
   _DireccionaLCD
     _EnviaDato
     _HabilitaLCD
     _RetardoLCD
   _Duty
     _BorraLCD
     _Transmitir
     ___ftdiv
       ___ftpack
     ___ftge
   _InicializaLCD
     _BorraLCD
     _EnviaDato
     _HabilitaLCD
     _RetardoLCD
   _MensajeLCD_Var
     _EscribeLCD_c
       _EnviaDato
       _HabilitaLCD
       _RetardoLCD
   ___ftadd
     ___ftpack
   ___ftsub
     ___ftadd
   ___lwtoft
     _Conversion (ARG)
     ___ftpack (ARG)

 _ISR (ROOT)
   _LecturaEntrada
     ___ftmul
       ___lbtoft (ARG)
         i2___ftpack
       i2___ftpack (ARG)
     ___fttol
       ___ftmul (ARG)
       ___lbtoft (ARG)
     ___lbtoft
   _Recibir
   i2_BorraLCD
     i2_EnviaDato
       i2_HabilitaLCD
       i2_RetardoLCD
     i2_HabilitaLCD
     i2_RetardoLCD
   i2_MensajeLCD_Var
     i2_EscribeLCD_c
       i2_EnviaDato
       i2_HabilitaLCD
       i2_RetardoLCD
   i2_Transmitir

 Address spaces:
Name               Size   Autos  Total    Cost      Usage
BIGRAM             7FF      0       0      21        0.0%
EEDATA             100      0       0       0        0.0%
BITBANK7           100      0       0      18        0.0%
BANK7              100      0       0      19        0.0%
BITBANK6           100      0       0      16        0.0%
BANK6              100      0       0      17        0.0%
BITBANK5           100      0       0      14        0.0%
BANK5              100      0       0      15        0.0%
BITBANK4           100      0       0      12        0.0%
BANK4              100      0       0      13        0.0%
BITBANK3           100      0       0      10        0.0%
BANK3              100      0       0      11        0.0%
BITBANK2           100      0       0       8        0.0%
BANK2              100      0       0       9        0.0%
BITBANK1           100      0       0       6        0.0%
BANK1              100      0       0       7        0.0%
BITBANK0            A0      0       0       4        0.0%
BANK0               A0     22      28       5       25.0%
BITCOMRAM           5E      0       0       0        0.0%
COMRAM              5E     31      33       1       54.3%
BITSFR               0      0       0     200        0.0%
SFR                  0      0       0     200        0.0%
STACK                0      0       0       2        0.0%
NULL                 0      0       0       0        0.0%
ABS                  0      0      5B      20        0.0%
DATA                 0      0      5B       3        0.0%
CODE                 0      0       0       0        0.0%


Microchip Technology PIC18 Macro Assembler V2.32 build 20210201212658 
Symbol Table                                                                                   Sun Feb 06 10:15:01 2022

        Transmitir@BufferT 0060                         _GO 007E11                 EnviaDato@a 0063  
               i2___ftpack 1454               ___ftadd@exp1 0073               ___ftadd@exp2 0072  
             ___ftadd@sign 0071              _InicializaLCD 15AE                        l236 18DA  
                      l655 0FD4                        l666 11EE                        _GIE 007F97  
                      _RB6 007C0E                        _RB7 007C0F                        _PR2 000FCB  
                      _ISR 0008                        wreg 000FE8                       ?_ISR 0001  
             ___ftdiv@cntr 0071           ??i2_EscribeLCD_c 0005               ___ftdiv@sign 0076  
                     l2020 0F68                       l2022 0F72                       l2040 0FF0  
                     l2032 0FA6                       l2024 0F7C                       l2050 1020  
                     l2034 0FB0                       l2060 1162                       l2310 08C4  
                     l2152 166C                       l2312 08CA                       l2066 118A  
                     l2162 16BA                       l2410 0CBE                       l2402 0C6E  
                     l2322 091A                       l2306 0876                       l2234 15C0  
                     l2156 168E                       l2340 09E6                       l2332 0996  
                     l2316 08F2                       l2244 15DE                       l2500 0D8A  
                     l2086 11C8                       l2406 0C96                       l2326 0942  
                     l2254 15FC                       l2360 0AAE                       l2352 0A5E  
                     l2344 0A0E                       l2336 09BE                       l2370 0B06  
                     l2274 1634                       l2364 0AD6                       l2356 0A86  
                     l2348 0A36                       l2284 1896                       l2428 183A  
                     l2390 0BF6                       l2382 0BA6                       l2374 0B56  
                     l1832 16C4                       l2368 0AFE                       l2288 18AA  
                     l1834 16D6                       l1842 170E                       l2394 0C1E  
                     l2386 0BCE                       l2378 0B7E                       l1836 16FA  
                     l1838 1704                       l2398 0C46                       l1874 17D0  
                     l1890 13EC                       l1980 1A02                       l1894 1402  
                     l1886 13C4                       l1896 1420                       l1888 13CE  
                     l1992 0EEE                       l1898 142A                       l1998 0F16  
             i2_Transmitir 1A0C             _LecturaEntrada 1502                       STR_1 0810  
                     STR_2 0801                       STR_3 082A                       STR_4 081E  
                     u1110 13B6                       u1301 0EC2                       u1150 1434  
                     u1330 0EE0                       u1501 114A                       u1430 0F84  
                     _LATB 000F8A                       u2207 16FC                       u1360 0F08  
                     _LATD 000F8C                       u2217 1706                       u1521 1172  
                     u2227 19E8                       u1291 0EAE                       u2147 0D3A  
                     u1460 0FB8                       u2157 0D78                       u1390 0F46  
                     u2167 0E72                       u2177 16CC                       u1730 1970  
                     u2187 16DE                       u2197 16EA                       _PEIE 007F96  
                     _RBIF 007F90                       _RCIE 007CED                       _RCIF 007CF5  
                     _TMR0 000FD6                       _TMR2 000FCC                       _TRMT 007D61  
                     _Caso 0032             ??_EscribeLCD_c 0064                       _Duty 0836  
                     _VanX 0085                       _VanY 0082                       _main 0CC6  
             ___ftpack@arg 0060               ___ftpack@exp 0063                       btemp 0034  
                     start 000E               ___ftmul@cntr 001A               ___param_bank 000000  
             ___ftmul@sign 001B                      ??_ISR 002C            __end_of_Recibir 1A20  
             ___fttol@exp1 002A               ___fttol@lval 0026                      ?_Duty 0077  
           ?_InicializaLCD 0001                      ?_main 0001                      _ADRES 000FC3  
          __end_of___ftadd 1046              EscribeLCD_c@a 0064            __end_of___ftdiv 1220  
          __end_of___ftmul 113A                      _T0CON 000FD5            __end_of___ftsub 1864  
          __end_of___fttol 12F2                      _T2CON 000FCA                      _LATA3 007C4B  
                    _LATD0 007C60                      _LATD1 007C61                      _LATD2 007C62  
                    _LATD3 007C63                      _IRCF0 007E9C                      _IRCF1 007E9D  
                    i2l221 1392                      i2l320 1556                      i2l217 135A  
                    i2l316 1506                      i2l318 1510                      i2l319 151A  
                    _RCREG 000FAE                      _RCSTA 000FAB                      _SPBRG 000FAF  
                    _TRISB 000F93                      _TRISD 000F95                      _TXREG 000FAD  
                    _TXSTA 000FAC                      Duty@V 0077                      Duty@X 007A  
   __end_of_LecturaEntrada 15AE                ?i2_BorraLCD 0001              ___ftpack@sign 0064  
  __size_of_MensajeLCD_Var 002A                      tablat 000FF5                 _Conversion 18BE  
              _HabilitaLCD 19E4                      ttemp5 0035                      ttemp6 0038  
                    ttemp7 003C                      status 000FD8                      wtemp8 0035  
         __end_of_BorraLCD 19D0            __initialization 1864               __end_of_Duty 0CC6  
             __end_of_main 0E9E           i2_MensajeLCD_Var 18E8                     ??_Duty 007D  
              ?i2___ftpack 0001                     ??_main 007D       __end_of_ConfiguraLCD 1976  
            ___fttol@sign1 0025              __activetblptr 000002            ?_LecturaEntrada 0001  
                   _ADCON0 000FC2                     _ADCON1 000FC1                     _ADCON2 000FC0  
           DireccionaLCD@a 0064                     _CCPR1L 000FBE           __end_of___ftpack 1454  
       __size_of_EnviaDato 004C           __end_of___lbtoft 195A                     i2l2112 1096  
                   i2l2200 12B8                     i2l2130 10D8                     i2l2106 106E  
                   i2l2202 12C4                     i2l2140 1100                     i2l2126 10C8  
                   i2l2136 10F0                     i2l2208 12E0                     i2l2172 124C  
                   i2l2190 12A0                     i2l2422 1592                     i2l2194 12B0  
                   i2l2450 18FC                     i2l2452 1A0E                     i2l2524 1316  
                   i2l2446 18EA                     i2l2550 1384                     i2l2536 1340  
                   i2l1940 149A                     i2l1852 1730                     i2l1924 1816  
                   i2l2548 1382                     i2l1854 1742                     i2l1862 1776  
                   i2l1944 14B0                     i2l1936 1472                     i2l1856 1762  
                   i2l1946 14CE                     i2l1938 147C                     i2l1858 176C  
                   i2l1948 14D8                     u155_41 1056                     u164_41 1230  
                   u157_41 107E           __end_of___lwtoft 1936                     _TMR0IE 007F95  
                   _TMR0IF 007F92                     _TMR2ON 007E52                     _TRISA3 007C93  
                   _TRISC2 007CA2                     _TRISE0 007CB0                     _TRISE1 007CB1  
    __end_of_DireccionaLCD 19A6                 _RetardoLCD 16BE                  ??_Recibir 0001  
                   ___ftge 164A                  ??___ftadd 006E                  ??___ftdiv 006E  
                ??___ftmul 0013                  ??___ftsub 007A                  ??___fttol 0020  
      __size_ofi2_BorraLCD 0014            ??_InicializaLCD 0064                     isa$std 000001  
     __end_of_EscribeLCD_c 198E      ___ftmul@f3_as_product 0017               ?i2_EnviaDato 0001  
             __pdataCOMRAM 0033               __mediumconst 0000                     tblptrh 000FF7  
                   tblptrl 000FF6                     tblptru 000FF8                 _Transmitir 1A00  
              ?_Conversion 0060      __end_ofi2_HabilitaLCD 1A00                 __accesstop 0060  
  __end_of__initialization 1886                 ___ftadd@f1 0068                 ___ftadd@f2 006B  
      __size_ofi2___ftpack 00AE                 ___ftge@ff1 0060                 ___ftge@ff2 0063  
            ___rparam_used 000001                 ___ftdiv@f1 0068                 ___ftdiv@f2 006B  
               ___ftdiv@f3 0072             i2___ftpack@arg 0001             i2___ftpack@exp 0004  
               ___lbtoft@c 000C                 ___ftmul@f1 000D                 ___ftmul@f2 0010  
               ___ftsub@f1 0074                 ___ftsub@f2 0077                 ___fttol@f1 001C  
           __pcstackCOMRAM 0001          __end_of_EnviaDato 17DE      LecturaEntrada@entrada 002B  
               ___lwtoft@c 0068                  ?_BorraLCD 0001             _MensajeLCD_Var 1894  
               __pbssBANK0 0082            MensajeLCD_Var@a 0065                ?_RetardoLCD 0001  
              RetardoLCD@a 0061                    ?___ftge 0060      __size_of_ConfiguraLCD 001C  
                  _CCP1CON 000FBD                    _BAUDCON 000FB8                  ?___ftpack 0060  
                ?___lbtoft 0009        __size_of_Conversion 002A                  ?___lwtoft 0068  
   __end_of_MensajeLCD_Var 18BE               ??i2_BorraLCD 0005                 ??_BorraLCD 0064  
              ?_Transmitir 0001   __end_ofi2_MensajeLCD_Var 1910               ?_HabilitaLCD 0001  
             _ConfiguraLCD 195A                    _Recibir 1A18                    __Hparam 0000  
                  __Lparam 0000      __size_of_EscribeLCD_c 0018            __size_of___ftge 0074  
                  ___ftadd 0E9E                    ___ftdiv 113A                    ___ftmul 1046  
                  ___ftsub 1824                    ___fttol 1220               __psmallconst 0800  
       __end_ofi2_BorraLCD 19E4                    __pcinit 1864               ??i2___ftpack 0006  
               ??___ftpack 0065                 ??___lbtoft 000C                    __ramtop 0800  
                  __ptext0 0CC6                    __ptext1 1910                    __ptext2 1824  
                  __ptext3 0E9E                    __ptext4 1894                    __ptext5 1976  
                  __ptext6 15AE                    __ptext7 0836                    __ptext8 164A  
                  __ptext9 113A                 ??___lwtoft 006B           ??_LecturaEntrada 002B  
             __size_of_ISR 139E        __size_of_RetardoLCD 006E       __size_ofi2_EnviaDato 0046  
          ?_MensajeLCD_Var 0065             __pintcode_body 12F2       end_of_initialization 1886  
          Conversion@canal 0063              __Lmediumconst 0000                    int_func 12F2  
             _EscribeLCD_c 1976         __end_ofi2___ftpack 1502    __size_ofi2_EscribeLCD_c 0016  
      __size_of_Transmitir 000C            i2EscribeLCD_c@a 0005               ??_Conversion 0062  
              ___ftdiv@exp 0075              ?i2_RetardoLCD 0001            i2___ftpack@sign 0005  
              ___ftmul@exp 0016             __end_of___ftge 16BE              __pidataCOMRAM 1A20  
    __end_of_InicializaLCD 164A         __end_of_Conversion 18E8                  _EnviaDato 1792  
   __size_of_DireccionaLCD 0018        start_initialization 1864                __end_of_ISR 13A6  
            ?i2_Transmitir 0001          __size_of_BorraLCD 0014             ??i2_RetardoLCD 0001  
             ??_RetardoLCD 0060       __size_of_HabilitaLCD 000E                   ??___ftge 0066  
   __size_ofi2_HabilitaLCD 000E                 ?_EnviaDato 0001          __size_of___ftpack 00AE  
        __size_of___lbtoft 0024                __pbssCOMRAM 0032         __end_of_RetardoLCD 172C  
        __size_of___lwtoft 0026              __pcstackBANK0 0060             ??i2_Transmitir 0001  
             ??_Transmitir 0060          ?i2_MensajeLCD_Var 0006         ??i2_MensajeLCD_Var 0007  
            _DireccionaLCD 198E                   ?_Recibir 0001             i2_EscribeLCD_c 19A6  
                __pintcode 0008                   ?___ftadd 0068                   ?___ftdiv 0068  
                 ?___ftmul 000D                   ?___ftsub 0074                   ?___fttol 001C  
       __end_of_Transmitir 1A0C           ??_MensajeLCD_Var 0066                __smallconst 0800  
      i2Transmitir@BufferT 0001              i2_HabilitaLCD 19F2             ?_DireccionaLCD 0001  
   __end_ofi2_EscribeLCD_c 19BC                   i2u121_40 1464                   i2u125_40 14E2  
                 i2u230_47 176E                   i2u231_47 19F6                   i2u223_47 132E  
                 i2u224_47 134A                   i2u225_47 136E                   i2u170_40 12CA  
                 i2u226_47 1736                   i2u227_47 1748                   i2u228_47 1752  
                 i2u165_40 123A                   i2u229_47 1764                   i2u166_40 126A  
                 i2u166_45 1262              ??i2_EnviaDato 0003       __end_ofi2_RetardoLCD 1792  
              ??_EnviaDato 0062                   _BorraLCD 19BC             ?i2_HabilitaLCD 0001  
          ?i2_EscribeLCD_c 0001                   __Hrparam 0000           __size_of_Recibir 0008  
                 __Lrparam 0000       __end_ofi2_Transmitir 1A18           __size_of___ftadd 01A8  
         __size_of___ftdiv 00E6           __size_of___ftmul 00F4           __size_of___ftsub 0040  
         __size_of___fttol 00D2               i2EnviaDato@a 0004                   ___ftpack 13A6  
                 ___lbtoft 1936                   ___lwtoft 1910              ConfiguraLCD@a 0060  
                 _main$845 007F                   __ptext10 13A6                   __ptext11 1A00  
                 __ptext20 1A0C                   __ptext12 19BC                   __ptext21 18E8  
                 __ptext13 198E                   __ptext30 1220                   __ptext22 19A6  
                 __ptext14 1792                   __ptext31 1046                   __ptext23 19D0  
                 __ptext15 16BE                   __ptext32 1454                   __ptext24 17DE  
                 __ptext16 19E4                   __ptext25 172C                   __ptext17 18BE  
                 __ptext26 19F2                   __ptext18 195A                   __ptext27 1A18  
                 __ptext28 1502                   __ptext29 1936        __end_ofi2_EnviaDato 1824  
  __size_of_LecturaEntrada 00AC            ??_DireccionaLCD 0064              __size_of_Duty 0490  
            __size_of_main 01D8                   _interfaz 0033                   isa$xinst 000000  
                 int$flags 0034            ??i2_HabilitaLCD 0001                   intlevel2 0000  
            ??_HabilitaLCD 0060              ?_ConfiguraLCD 0001     __size_of_InicializaLCD 009C  
            i2RetardoLCD@a 0002      __size_ofi2_RetardoLCD 0066  __size_ofi2_MensajeLCD_Var 0028  
              i2_EnviaDato 17DE                 i2_BorraLCD 19D0             ??_ConfiguraLCD 0060  
            ?_EscribeLCD_c 0001          i2MensajeLCD_Var@a 0006               i2_RetardoLCD 172C  
    __size_ofi2_Transmitir 000C        __end_of_HabilitaLCD 19F2  
