

Microchip MPLAB XC8 Assembler V2.32 build 20210201212658 
                                                                                               Sun Feb 06 07:27:29 2022

Microchip MPLAB XC8 C Compiler v2.32 (Free license) build 20210201212658 Og9 
     1                           	processor	18F4550
     2                           	fnconf	rparam,??,?,0
     3                           	pagewidth 120
     4                           	opt	flic
     5                           	psect	idataCOMRAM,global,class=CODE,delta=1,noexec
     6                           	psect	nvCOMRAM,global,class=COMRAM,space=1,delta=1,lowdata,noexec
     7                           	psect	cinit,global,reloc=2,class=CODE,delta=1
     8                           	psect	bssCOMRAM,global,class=COMRAM,space=1,delta=1,lowdata,noexec
     9                           	psect	dataCOMRAM,global,class=COMRAM,space=1,delta=1,lowdata,noexec
    10                           	psect	cstackBANK0,global,class=BANK0,space=1,delta=1,lowdata,noexec
    11                           	psect	cstackCOMRAM,global,class=COMRAM,space=1,delta=1,lowdata,noexec
    12                           	psect	text0,global,reloc=2,class=CODE,delta=1
    13                           	psect	text1,global,reloc=2,class=CODE,delta=1,group=1
    14                           	psect	text2,global,reloc=2,class=CODE,delta=1,group=1
    15                           	psect	text3,global,reloc=2,class=CODE,delta=1,group=1
    16                           	psect	text4,global,reloc=2,class=CODE,delta=1,group=1
    17                           	psect	text5,global,reloc=2,class=CODE,delta=1
    18                           	psect	text6,global,reloc=2,class=CODE,delta=1
    19                           	psect	intcode,global,reloc=2,class=CODE,delta=1
    20                           	psect	intcode_body,global,reloc=2,class=CODE,delta=1
    21                           	psect	text8,global,reloc=2,class=CODE,delta=1
    22                           	psect	text9,global,reloc=2,class=CODE,delta=1
    23                           	psect	text10,global,reloc=2,class=CODE,delta=1,group=1
    24                           	psect	text11,global,reloc=2,class=CODE,delta=1,group=1
    25                           	psect	text12,global,reloc=2,class=CODE,delta=1,group=1
    26                           	psect	text13,global,reloc=2,class=CODE,delta=1
    27                           	psect	intsave_regs,global,class=BIGRAM,space=1,delta=1,noexec
    28                           	psect	rparam,global,class=COMRAM,space=1,delta=1,noexec
    29                           	psect	temp,global,ovrld,common,class=COMRAM,space=1,delta=1
    30                           	psect	idloc,global,abs,ovrld,class=IDLOC,space=5,delta=1,noexec
    31                           	psect	config,global,abs,ovrld,class=CONFIG,space=4,delta=1,noexec
    32  0000                     
    33                           ; Version 2.32
    34                           ; Generated 02/02/2021 GMT
    35                           ; 
    36                           ; Copyright © 2021, Microchip Technology Inc. and its subsidiaries ("Microchip")
    37                           ; All rights reserved.
    38                           ; 
    39                           ; This software is developed by Microchip Technology Inc. and its subsidiaries ("Microch
      +                          ip").
    40                           ; 
    41                           ; Redistribution and use in source and binary forms, with or without modification, are
    42                           ; permitted provided that the following conditions are met:
    43                           ; 
    44                           ;     1. Redistributions of source code must retain the above copyright notice, this lis
      +                          t of
    45                           ;        conditions and the following disclaimer.
    46                           ; 
    47                           ;     2. Redistributions in binary form must reproduce the above copyright notice, this 
      +                          list
    48                           ;        of conditions and the following disclaimer in the documentation and/or other
    49                           ;        materials provided with the distribution. Publication is not required when
    50                           ;        this file is used in an embedded application.
    51                           ; 
    52                           ;     3. Microchip's name may not be used to endorse or promote products derived from th
      +                          is
    53                           ;        software without specific prior written permission.
    54                           ; 
    55                           ; THIS SOFTWARE IS PROVIDED BY MICROCHIP "AS IS" AND ANY EXPRESS OR IMPLIED WARRANTIES,
    56                           ; INCLUDING, BUT NOT LIMITED TO, THE IMPLIED WARRANTIES OF MERCHANTABILITY AND FITNESS F
      +                          OR
    57                           ; PURPOSE ARE DISCLAIMED.  IN NO EVENT SHALL MICROCHIP BE LIABLE FOR ANY DIRECT, INDIREC
      +                          T,
    58                           ; INCIDENTAL, SPECIAL, EXEMPLARY, OR CONSEQUENTIAL DAMAGES (INCLUDING BUT NOT LIMITED TO
    59                           ; PROCUREMENT OF SUBSTITUTE GOODS OR SERVICES; LOSS OF USE, DATA OR PROFITS; OR BUSINESS
    60                           ; INTERRUPTION) HOWSOEVER CAUSED AND ON ANY THEORY OF LIABILITY, WHETHER IN CONTRACT, ST
      +                          RICT
    61                           ; LIABILITY, OR TORT (INCLUDING NEGLIGENCE OR OTHERWISE) ARISING IN ANY WAY OUT OF THE U
      +                          SE OF
    62                           ; THIS SOFTWARE, EVEN IF ADVISED OF THE POSSIBILITY OF SUCH DAMAGE.
    63                           ; 
    64                           ; 
    65                           ; Code-generator required, PIC18F4550 Definitions
    66                           ; 
    67                           ; SFR Addresses
    68  0000                     
    69                           	psect	idataCOMRAM
    70  0015B0                     __pidataCOMRAM:
    71                           	callstack 0
    72                           
    73                           ;initializer for _interfaz
    74  0015B0  08                 	db	8
    75                           
    76                           	psect	nvCOMRAM
    77  000034                     __pnvCOMRAM:
    78                           	callstack 0
    79  000034                     _Van1:
    80                           	callstack 0
    81  000034                     	ds	3
    82  000037                     _Van0:
    83                           	callstack 0
    84  000037                     	ds	3
    85  00003A                     _activado:
    86                           	callstack 0
    87  00003A                     	ds	1
    88  0000                     _ADRES	set	4035
    89  0000                     _TMR0	set	4054
    90  0000                     _TXREG	set	4013
    91  0000                     _RCREG	set	4014
    92  0000                     _T0CON	set	4053
    93  0000                     _LATB	set	3978
    94  0000                     _TRISB	set	3987
    95  0000                     _TRISD	set	3989
    96  0000                     _CCPR2L	set	4027
    97  0000                     _CCPR1L	set	4030
    98  0000                     _PR2	set	4043
    99  0000                     _TMR2	set	4044
   100  0000                     _CCP2CON	set	4026
   101  0000                     _CCP1CON	set	4029
   102  0000                     _T2CON	set	4042
   103  0000                     _SPBRG	set	4015
   104  0000                     _BAUDCON	set	4024
   105  0000                     _RCSTA	set	4011
   106  0000                     _TXSTA	set	4012
   107  0000                     _ADCON2	set	4032
   108  0000                     _ADCON1	set	4033
   109  0000                     _ADCON0	set	4034
   110  0000                     _LATD	set	3980
   111  0000                     _GO	set	32273
   112  0000                     _TRMT	set	32097
   113  0000                     _RBIF	set	32656
   114  0000                     _PEIE	set	32662
   115  0000                     _GIE	set	32663
   116  0000                     _TRISC2	set	31906
   117  0000                     _TRISC1	set	31905
   118  0000                     _RCIF	set	31989
   119  0000                     _RCIE	set	31981
   120  0000                     _TMR0IE	set	32661
   121  0000                     _TMR0IF	set	32658
   122  0000                     _TRISE1	set	31921
   123  0000                     _TRISE0	set	31920
   124  0000                     _TMR2ON	set	32338
   125  0000                     _IRCF0	set	32412
   126  0000                     _IRCF1	set	32413
   127                           
   128                           ; #config settings
   129                           
   130                           	psect	cinit
   131  0014AE                     __pcinit:
   132                           	callstack 0
   133  0014AE                     start_initialization:
   134                           	callstack 0
   135  0014AE                     __initialization:
   136                           	callstack 0
   137                           
   138                           ; Initialize objects allocated to COMRAM (1 bytes)
   139                           ; load TBLPTR registers with __pidataCOMRAM
   140  0014AE  0EB0               	movlw	low __pidataCOMRAM
   141  0014B0  6EF6               	movwf	tblptrl,c
   142  0014B2  0E15               	movlw	high __pidataCOMRAM
   143  0014B4  6EF7               	movwf	tblptrh,c
   144  0014B6  0E00               	movlw	low (__pidataCOMRAM shr (0+16))
   145  0014B8  6EF8               	movwf	tblptru,c
   146  0014BA  0009               	tblrd		*+	;fetch initializer
   147  0014BC  CFF5 F03B          	movff	tablat,__pdataCOMRAM
   148                           
   149                           ; Clear objects allocated to COMRAM (8 bytes)
   150  0014C0  EE00  F02C         	lfsr	0,__pbssCOMRAM
   151  0014C4  0E08               	movlw	8
   152  0014C6                     clear_0:
   153  0014C6  6AEE               	clrf	postinc0,c
   154  0014C8  06E8               	decf	wreg,f,c
   155  0014CA  E1FD               	bnz	clear_0
   156  0014CC                     end_of_initialization:
   157                           	callstack 0
   158  0014CC                     __end_of__initialization:
   159                           	callstack 0
   160  0014CC  903C               	bcf	int$flags,0,c	;clear compiler interrupt flag (level 1)
   161  0014CE  923C               	bcf	int$flags,1,c	;clear compiler interrupt flag (level 2)
   162  0014D0  0E00               	movlw	low (__Lmediumconst shr (0+16))
   163  0014D2  6EF8               	movwf	tblptru,c
   164  0014D4  0100               	movlb	0
   165  0014D6  EFB3  F007         	goto	_main	;jump to C main() function
   166                           
   167                           	psect	bssCOMRAM
   168  00002C                     __pbssCOMRAM:
   169                           	callstack 0
   170  00002C                     _Duty:
   171                           	callstack 0
   172  00002C                     	ds	3
   173  00002F                     _Van2:
   174                           	callstack 0
   175  00002F                     	ds	3
   176  000032                     _Caso:
   177                           	callstack 0
   178  000032                     	ds	1
   179  000033                     _DatoRecibido:
   180                           	callstack 0
   181  000033                     	ds	1
   182                           
   183                           	psect	dataCOMRAM
   184  00003B                     __pdataCOMRAM:
   185                           	callstack 0
   186  00003B                     _interfaz:
   187                           	callstack 0
   188  00003B                     	ds	1
   189                           
   190                           	psect	cstackBANK0
   191  000060                     __pcstackBANK0:
   192                           	callstack 0
   193  000060                     ?_Conversion:
   194                           	callstack 0
   195  000060                     ?___ftpack:
   196                           	callstack 0
   197  000060                     Transmitir@BufferT:
   198                           	callstack 0
   199  000060                     ___ftpack@arg:
   200                           	callstack 0
   201  000060                     ___ftge@ff1:
   202                           	callstack 0
   203                           
   204                           ; 3 bytes @ 0x0
   205  000060                     	ds	2
   206  000062                     ??_Conversion:
   207                           
   208                           ; 1 bytes @ 0x2
   209  000062                     	ds	1
   210  000063                     Conversion@canal:
   211                           	callstack 0
   212  000063                     ___ftpack@exp:
   213                           	callstack 0
   214  000063                     ___ftge@ff2:
   215                           	callstack 0
   216                           
   217                           ; 3 bytes @ 0x3
   218  000063                     	ds	1
   219  000064                     ?___wmul:
   220                           	callstack 0
   221  000064                     ___ftpack@sign:
   222                           	callstack 0
   223  000064                     ___wmul@multiplier:
   224                           	callstack 0
   225                           
   226                           ; 2 bytes @ 0x4
   227  000064                     	ds	1
   228  000065                     ??___ftpack:
   229                           
   230                           ; 1 bytes @ 0x5
   231  000065                     	ds	1
   232  000066                     ??___ftge:
   233  000066                     ___wmul@multiplicand:
   234                           	callstack 0
   235                           
   236                           ; 2 bytes @ 0x6
   237  000066                     	ds	2
   238  000068                     ___wmul@product:
   239                           	callstack 0
   240                           
   241                           ; 2 bytes @ 0x8
   242  000068                     	ds	2
   243  00006A                     ?___lwtoft:
   244                           	callstack 0
   245  00006A                     ___lwtoft@c:
   246                           	callstack 0
   247                           
   248                           ; 2 bytes @ 0xA
   249  00006A                     	ds	3
   250  00006D                     ??_main:
   251  00006D                     
   252                           ; 1 bytes @ 0xD
   253  00006D                     	ds	2
   254                           
   255                           	psect	cstackCOMRAM
   256  000001                     __pcstackCOMRAM:
   257                           	callstack 0
   258  000001                     ?i2___ftpack:
   259                           	callstack 0
   260  000001                     i2___ftpack@arg:
   261                           	callstack 0
   262                           
   263                           ; 3 bytes @ 0x0
   264  000001                     	ds	3
   265  000004                     i2___ftpack@exp:
   266                           	callstack 0
   267                           
   268                           ; 1 bytes @ 0x3
   269  000004                     	ds	1
   270  000005                     i2___ftpack@sign:
   271                           	callstack 0
   272                           
   273                           ; 1 bytes @ 0x4
   274  000005                     	ds	1
   275  000006                     ??i2___ftpack:
   276                           
   277                           ; 1 bytes @ 0x5
   278  000006                     	ds	3
   279  000009                     ?___lbtoft:
   280                           	callstack 0
   281                           
   282                           ; 3 bytes @ 0x8
   283  000009                     	ds	3
   284  00000C                     ___lbtoft@c:
   285                           	callstack 0
   286                           
   287                           ; 1 bytes @ 0xB
   288  00000C                     	ds	1
   289  00000D                     ?___ftmul:
   290                           	callstack 0
   291  00000D                     ___ftmul@f1:
   292                           	callstack 0
   293                           
   294                           ; 3 bytes @ 0xC
   295  00000D                     	ds	3
   296  000010                     ___ftmul@f2:
   297                           	callstack 0
   298                           
   299                           ; 3 bytes @ 0xF
   300  000010                     	ds	3
   301  000013                     ??___ftmul:
   302                           
   303                           ; 1 bytes @ 0x12
   304  000013                     	ds	3
   305  000016                     ___ftmul@exp:
   306                           	callstack 0
   307                           
   308                           ; 1 bytes @ 0x15
   309  000016                     	ds	1
   310  000017                     ___ftmul@f3_as_product:
   311                           	callstack 0
   312                           
   313                           ; 3 bytes @ 0x16
   314  000017                     	ds	3
   315  00001A                     ___ftmul@cntr:
   316                           	callstack 0
   317                           
   318                           ; 1 bytes @ 0x19
   319  00001A                     	ds	1
   320  00001B                     ___ftmul@sign:
   321                           	callstack 0
   322                           
   323                           ; 1 bytes @ 0x1A
   324  00001B                     	ds	1
   325  00001C                     ?___fttol:
   326                           	callstack 0
   327  00001C                     ___fttol@f1:
   328                           	callstack 0
   329                           
   330                           ; 3 bytes @ 0x1B
   331  00001C                     	ds	4
   332  000020                     ??___fttol:
   333                           
   334                           ; 1 bytes @ 0x1F
   335  000020                     	ds	5
   336  000025                     ___fttol@sign1:
   337                           	callstack 0
   338                           
   339                           ; 1 bytes @ 0x24
   340  000025                     	ds	1
   341  000026                     ___fttol@lval:
   342                           	callstack 0
   343                           
   344                           ; 4 bytes @ 0x25
   345  000026                     	ds	4
   346  00002A                     ___fttol@exp1:
   347                           	callstack 0
   348                           
   349                           ; 1 bytes @ 0x29
   350  00002A                     	ds	1
   351  00002B                     LecturaEntrada@entrada:
   352                           	callstack 0
   353                           
   354                           ; 1 bytes @ 0x2A
   355  00002B                     	ds	1
   356  00002C                     
   357                           ; 1 bytes @ 0x2B
   358 ;;
   359 ;;Main: autosize = 0, tempsize = 2, incstack = 0, save=0
   360 ;;
   361 ;; *************** function _main *****************
   362 ;; Defined at:
   363 ;;		line 24 in file "ProyectoCarro.c"
   364 ;; Parameters:    Size  Location     Type
   365 ;;		None
   366 ;; Auto vars:     Size  Location     Type
   367 ;;		None
   368 ;; Return value:  Size  Location     Type
   369 ;;                  1    wreg      void 
   370 ;; Registers used:
   371 ;;		wreg, status,2, status,0, prodl, prodh, cstack
   372 ;; Tracked objects:
   373 ;;		On entry : 0/0
   374 ;;		On exit  : 0/0
   375 ;;		Unchanged: 0/0
   376 ;; Data sizes:     COMRAM   BANK0   BANK1   BANK2   BANK3   BANK4   BANK5   BANK6   BANK7
   377 ;;      Params:         0       0       0       0       0       0       0       0       0
   378 ;;      Locals:         0       0       0       0       0       0       0       0       0
   379 ;;      Temps:          0       2       0       0       0       0       0       0       0
   380 ;;      Totals:         0       2       0       0       0       0       0       0       0
   381 ;;Total ram usage:        2 bytes
   382 ;; Hardware stack levels required when called: 6
   383 ;; This function calls:
   384 ;;		_Conversion
   385 ;;		_Transmitir
   386 ;;		___ftge
   387 ;;		___lwtoft
   388 ;;		___wmul
   389 ;; This function is called by:
   390 ;;		Startup code after reset
   391 ;; This function uses a non-reentrant model
   392 ;;
   393                           
   394                           	psect	text0
   395  000F66                     __ptext0:
   396                           	callstack 0
   397  000F66                     _main:
   398                           	callstack 25
   399                           
   400                           ;ProyectoCarro.c: 25: IRCF1=1;
   401                           
   402                           ;incstack = 0
   403  000F66  8AD3               	bsf	4051,5,c	;volatile
   404                           
   405                           ;ProyectoCarro.c: 26: IRCF0=1;
   406  000F68  88D3               	bsf	4051,4,c	;volatile
   407                           
   408                           ;ProyectoCarro.c: 31: ADCON0=0b00000001;
   409  000F6A  0E01               	movlw	1
   410  000F6C  6EC2               	movwf	194,c	;volatile
   411                           
   412                           ;ProyectoCarro.c: 32: ADCON1=12;
   413  000F6E  0E0C               	movlw	12
   414  000F70  6EC1               	movwf	193,c	;volatile
   415                           
   416                           ;ProyectoCarro.c: 33: ADCON2=0b10001000;
   417  000F72  0E88               	movlw	136
   418  000F74  6EC0               	movwf	192,c	;volatile
   419                           
   420                           ;ProyectoCarro.c: 35: TXSTA=0b00100100;
   421  000F76  0E24               	movlw	36
   422  000F78  6EAC               	movwf	172,c	;volatile
   423                           
   424                           ;ProyectoCarro.c: 36: RCSTA=0b10010000;
   425  000F7A  0E90               	movlw	144
   426  000F7C  6EAB               	movwf	171,c	;volatile
   427                           
   428                           ;ProyectoCarro.c: 37: BAUDCON=0b00001000;
   429  000F7E  0E08               	movlw	8
   430  000F80  6EB8               	movwf	184,c	;volatile
   431                           
   432                           ;ProyectoCarro.c: 38: SPBRG=207;
   433  000F82  0ECF               	movlw	207
   434  000F84  6EAF               	movwf	175,c	;volatile
   435                           
   436                           ;ProyectoCarro.c: 42: T2CON=0b00000011;
   437  000F86  0E03               	movlw	3
   438  000F88  6ECA               	movwf	202,c	;volatile
   439                           
   440                           ;ProyectoCarro.c: 43: CCP1CON=0b00001100;
   441  000F8A  0E0C               	movlw	12
   442  000F8C  6EBD               	movwf	189,c	;volatile
   443                           
   444                           ;ProyectoCarro.c: 44: CCP2CON=0b00001100;
   445  000F8E  0E0C               	movlw	12
   446  000F90  6EBA               	movwf	186,c	;volatile
   447                           
   448                           ;ProyectoCarro.c: 45: TMR2=0;
   449  000F92  0E00               	movlw	0
   450  000F94  6ECC               	movwf	204,c	;volatile
   451                           
   452                           ;ProyectoCarro.c: 46: TMR2ON=1;
   453  000F96  84CA               	bsf	4042,2,c	;volatile
   454                           
   455                           ;ProyectoCarro.c: 49: PR2=124;
   456  000F98  0E7C               	movlw	124
   457  000F9A  6ECB               	movwf	203,c	;volatile
   458                           
   459                           ;ProyectoCarro.c: 50: CCPR1L=0;
   460  000F9C  0E00               	movlw	0
   461  000F9E  6EBE               	movwf	190,c	;volatile
   462                           
   463                           ;ProyectoCarro.c: 51: CCPR2L=0;
   464  000FA0  0E00               	movlw	0
   465  000FA2  6EBB               	movwf	187,c	;volatile
   466                           
   467                           ;ProyectoCarro.c: 53: TRISD=0;
   468  000FA4  0E00               	movlw	0
   469  000FA6  6E95               	movwf	149,c	;volatile
   470                           
   471                           ;ProyectoCarro.c: 54: LATD=0b1010001;
   472  000FA8  0E51               	movlw	81
   473  000FAA  6E8C               	movwf	140,c	;volatile
   474                           
   475                           ;ProyectoCarro.c: 57: TRISB=0;
   476  000FAC  0E00               	movlw	0
   477  000FAE  6E93               	movwf	147,c	;volatile
   478                           
   479                           ;ProyectoCarro.c: 58: LATB=0;
   480  000FB0  0E00               	movlw	0
   481  000FB2  6E8A               	movwf	138,c	;volatile
   482                           
   483                           ;ProyectoCarro.c: 61: TRISE0=1;
   484  000FB4  8096               	bsf	3990,0,c	;volatile
   485                           
   486                           ;ProyectoCarro.c: 62: TRISE1=1;
   487  000FB6  8296               	bsf	3990,1,c	;volatile
   488                           
   489                           ;ProyectoCarro.c: 64: T0CON=0b10000101;
   490  000FB8  0E85               	movlw	133
   491  000FBA  6ED5               	movwf	213,c	;volatile
   492                           
   493                           ;ProyectoCarro.c: 65: TMR0=34286;
   494  000FBC  0E85               	movlw	133
   495  000FBE  6ED7               	movwf	215,c	;volatile
   496  000FC0  0EEE               	movlw	238
   497  000FC2  6ED6               	movwf	214,c	;volatile
   498                           
   499                           ;ProyectoCarro.c: 66: TMR0IF=0;
   500  000FC4  94F2               	bcf	4082,2,c	;volatile
   501                           
   502                           ;ProyectoCarro.c: 67: TMR0IE=1;
   503  000FC6  8AF2               	bsf	4082,5,c	;volatile
   504                           
   505                           ;ProyectoCarro.c: 68: RCIE=1;
   506  000FC8  8A9D               	bsf	3997,5,c	;volatile
   507                           
   508                           ;ProyectoCarro.c: 69: RCIF=0;
   509  000FCA  9A9E               	bcf	3998,5,c	;volatile
   510                           
   511                           ;ProyectoCarro.c: 71: TRISC1=0;
   512  000FCC  9294               	bcf	3988,1,c	;volatile
   513                           
   514                           ;ProyectoCarro.c: 72: TRISC2=0;
   515  000FCE  9494               	bcf	3988,2,c	;volatile
   516                           
   517                           ;ProyectoCarro.c: 78: GIE=1;
   518  000FD0  8EF2               	bsf	4082,7,c	;volatile
   519                           
   520                           ;ProyectoCarro.c: 79: PEIE=1;
   521  000FD2  8CF2               	bsf	4082,6,c	;volatile
   522                           
   523                           ;ProyectoCarro.c: 81: activado=1;
   524  000FD4  0E01               	movlw	1
   525  000FD6  6E3A               	movwf	_activado^0,c
   526  000FD8                     l2084:
   527                           
   528                           ;ProyectoCarro.c: 87: Van0=Conversion(0)*5/1024;
   529  000FD8  0E00               	movlw	0
   530  000FDA  EC6D  F00A         	call	_Conversion
   531  000FDE  C060  F064         	movff	?_Conversion,___wmul@multiplier
   532  000FE2  C061  F065         	movff	?_Conversion+1,___wmul@multiplier+1
   533  000FE6  0E00               	movlw	0
   534  000FE8  0100               	movlb	0	; () banked
   535  000FEA  6F67               	movwf	(___wmul@multiplicand+1)& (0+255),b
   536  000FEC  0E05               	movlw	5
   537  000FEE  6F66               	movwf	___wmul@multiplicand& (0+255),b
   538  000FF0  EC97  F00A         	call	___wmul	;wreg free
   539  000FF4  0E0A               	movlw	10
   540  000FF6  6F6D               	movwf	??_main& (0+255),b
   541  000FF8                     u1065:
   542  000FF8  90D8               	bcf	status,0,c
   543  000FFA  3365               	rrcf	(?___wmul+1)& (0+255),f,b
   544  000FFC  3364               	rrcf	?___wmul& (0+255),f,b
   545  000FFE  2F6D               	decfsz	??_main& (0+255),f,b
   546  001000  D7FB               	goto	u1065
   547  001002  C064  F06A         	movff	?___wmul,___lwtoft@c
   548  001006  C065  F06B         	movff	?___wmul+1,___lwtoft@c+1
   549  00100A  ECAA  F00A         	call	___lwtoft	;wreg free
   550  00100E  C06A  F037         	movff	?___lwtoft,_Van0
   551  001012  C06B  F038         	movff	?___lwtoft+1,_Van0+1
   552  001016  C06C  F039         	movff	?___lwtoft+2,_Van0+2
   553                           
   554                           ; BSR set to: 0
   555                           ;ProyectoCarro.c: 88: Van1=Conversion(1)*5/1024;
   556  00101A  0E01               	movlw	1
   557  00101C  EC6D  F00A         	call	_Conversion
   558  001020  C060  F064         	movff	?_Conversion,___wmul@multiplier
   559  001024  C061  F065         	movff	?_Conversion+1,___wmul@multiplier+1
   560  001028  0E00               	movlw	0
   561  00102A  0100               	movlb	0	; () banked
   562  00102C  6F67               	movwf	(___wmul@multiplicand+1)& (0+255),b
   563  00102E  0E05               	movlw	5
   564  001030  6F66               	movwf	___wmul@multiplicand& (0+255),b
   565  001032  EC97  F00A         	call	___wmul	;wreg free
   566  001036  0E0A               	movlw	10
   567  001038  6F6D               	movwf	??_main& (0+255),b
   568  00103A                     u1075:
   569  00103A  90D8               	bcf	status,0,c
   570  00103C  3365               	rrcf	(?___wmul+1)& (0+255),f,b
   571  00103E  3364               	rrcf	?___wmul& (0+255),f,b
   572  001040  2F6D               	decfsz	??_main& (0+255),f,b
   573  001042  D7FB               	goto	u1075
   574  001044  C064  F06A         	movff	?___wmul,___lwtoft@c
   575  001048  C065  F06B         	movff	?___wmul+1,___lwtoft@c+1
   576  00104C  ECAA  F00A         	call	___lwtoft	;wreg free
   577  001050  C06A  F034         	movff	?___lwtoft,_Van1
   578  001054  C06B  F035         	movff	?___lwtoft+1,_Van1+1
   579  001058  C06C  F036         	movff	?___lwtoft+2,_Van1+2
   580                           
   581                           ; BSR set to: 0
   582                           ;ProyectoCarro.c: 89: _delay((unsigned long)((175)*(8000000/4000.0)));
   583  00105C  0E02               	movlw	2
   584  00105E  0100               	movlb	0	; () banked
   585  001060  6F6E               	movwf	(??_main+1)& (0+255),b
   586  001062  0EC7               	movlw	199
   587  001064  6F6D               	movwf	??_main& (0+255),b
   588  001066  0E88               	movlw	136
   589  001068                     u1127:
   590  001068  2EE8               	decfsz	wreg,f,c
   591  00106A  D7FE               	bra	u1127
   592  00106C  2F6D               	decfsz	??_main& (0+255),f,b
   593  00106E  D7FC               	bra	u1127
   594  001070  2F6E               	decfsz	(??_main+1)& (0+255),f,b
   595  001072  D7FA               	bra	u1127
   596  001074  F000               	nop	
   597                           
   598                           ;ProyectoCarro.c: 90: if(Van0<0.5&&Van1<0.5){
   599  001076  C037  F060         	movff	_Van0,___ftge@ff1
   600  00107A  C038  F061         	movff	_Van0+1,___ftge@ff1+1
   601  00107E  C039  F062         	movff	_Van0+2,___ftge@ff1+2
   602  001082  0E00               	movlw	0
   603  001084  0100               	movlb	0	; () banked
   604  001086  6F63               	movwf	___ftge@ff2& (0+255),b
   605  001088  0E00               	movlw	0
   606  00108A  6F64               	movwf	(___ftge@ff2+1)& (0+255),b
   607  00108C  0E3F               	movlw	63
   608  00108E  6F65               	movwf	(___ftge@ff2+2)& (0+255),b
   609  001090  EC1D  F00A         	call	___ftge	;wreg free
   610  001094  B0D8               	btfsc	status,0,c
   611  001096  D014               	goto	l2096
   612                           
   613                           ; BSR set to: 0
   614  001098  C034  F060         	movff	_Van1,___ftge@ff1
   615  00109C  C035  F061         	movff	_Van1+1,___ftge@ff1+1
   616  0010A0  C036  F062         	movff	_Van1+2,___ftge@ff1+2
   617  0010A4  0E00               	movlw	0
   618  0010A6  6F63               	movwf	___ftge@ff2& (0+255),b
   619  0010A8  0E00               	movlw	0
   620  0010AA  6F64               	movwf	(___ftge@ff2+1)& (0+255),b
   621  0010AC  0E3F               	movlw	63
   622  0010AE  6F65               	movwf	(___ftge@ff2+2)& (0+255),b
   623  0010B0  EC1D  F00A         	call	___ftge	;wreg free
   624  0010B4  B0D8               	btfsc	status,0,c
   625  0010B6  D004               	goto	l2096
   626                           
   627                           ; BSR set to: 0
   628                           ;ProyectoCarro.c: 91: Transmitir('r');
   629  0010B8  0E72               	movlw	114
   630  0010BA  ECCE  F00A         	call	_Transmitir
   631                           
   632                           ;ProyectoCarro.c: 92: }else if(Van0<0.5){
   633  0010BE  D78C               	goto	l2084
   634  0010C0                     l2096:
   635                           
   636                           ; BSR set to: 0
   637  0010C0  C037  F060         	movff	_Van0,___ftge@ff1
   638  0010C4  C038  F061         	movff	_Van0+1,___ftge@ff1+1
   639  0010C8  C039  F062         	movff	_Van0+2,___ftge@ff1+2
   640  0010CC  0E00               	movlw	0
   641  0010CE  6F63               	movwf	___ftge@ff2& (0+255),b
   642  0010D0  0E00               	movlw	0
   643  0010D2  6F64               	movwf	(___ftge@ff2+1)& (0+255),b
   644  0010D4  0E3F               	movlw	63
   645  0010D6  6F65               	movwf	(___ftge@ff2+2)& (0+255),b
   646  0010D8  EC1D  F00A         	call	___ftge	;wreg free
   647  0010DC  B0D8               	btfsc	status,0,c
   648  0010DE  D004               	goto	l2100
   649                           
   650                           ; BSR set to: 0
   651                           ;ProyectoCarro.c: 93: Transmitir('s');
   652  0010E0  0E73               	movlw	115
   653  0010E2  ECCE  F00A         	call	_Transmitir
   654                           
   655                           ;ProyectoCarro.c: 94: }else if (Van1<0.5){
   656  0010E6  D778               	goto	l2084
   657  0010E8                     l2100:
   658                           
   659                           ; BSR set to: 0
   660  0010E8  C034  F060         	movff	_Van1,___ftge@ff1
   661  0010EC  C035  F061         	movff	_Van1+1,___ftge@ff1+1
   662  0010F0  C036  F062         	movff	_Van1+2,___ftge@ff1+2
   663  0010F4  0E00               	movlw	0
   664  0010F6  6F63               	movwf	___ftge@ff2& (0+255),b
   665  0010F8  0E00               	movlw	0
   666  0010FA  6F64               	movwf	(___ftge@ff2+1)& (0+255),b
   667  0010FC  0E3F               	movlw	63
   668  0010FE  6F65               	movwf	(___ftge@ff2+2)& (0+255),b
   669  001100  EC1D  F00A         	call	___ftge	;wreg free
   670  001104  B0D8               	btfsc	status,0,c
   671  001106  D004               	goto	l2104
   672                           
   673                           ; BSR set to: 0
   674                           ;ProyectoCarro.c: 95: Transmitir('S');
   675  001108  0E53               	movlw	83
   676  00110A  ECCE  F00A         	call	_Transmitir
   677                           
   678                           ;ProyectoCarro.c: 96: }else {
   679  00110E  D764               	goto	l2084
   680  001110                     l2104:
   681                           
   682                           ; BSR set to: 0
   683                           ;ProyectoCarro.c: 97: Transmitir('R');
   684  001110  0E52               	movlw	82
   685  001112  ECCE  F00A         	call	_Transmitir
   686  001116  D760               	goto	l2084
   687  001118                     __end_of_main:
   688                           	callstack 0
   689                           
   690 ;; *************** function ___wmul *****************
   691 ;; Defined at:
   692 ;;		line 15 in file "C:\Program Files\Microchip\xc8\v2.32\pic\sources\c90\common\Umul16.c"
   693 ;; Parameters:    Size  Location     Type
   694 ;;  multiplier      2    4[BANK0 ] unsigned int 
   695 ;;  multiplicand    2    6[BANK0 ] unsigned int 
   696 ;; Auto vars:     Size  Location     Type
   697 ;;  product         2    8[BANK0 ] unsigned int 
   698 ;; Return value:  Size  Location     Type
   699 ;;                  2    4[BANK0 ] unsigned int 
   700 ;; Registers used:
   701 ;;		wreg, status,2, status,0, prodl, prodh
   702 ;; Tracked objects:
   703 ;;		On entry : 3F/0
   704 ;;		On exit  : 3F/0
   705 ;;		Unchanged: 0/0
   706 ;; Data sizes:     COMRAM   BANK0   BANK1   BANK2   BANK3   BANK4   BANK5   BANK6   BANK7
   707 ;;      Params:         0       4       0       0       0       0       0       0       0
   708 ;;      Locals:         0       2       0       0       0       0       0       0       0
   709 ;;      Temps:          0       0       0       0       0       0       0       0       0
   710 ;;      Totals:         0       6       0       0       0       0       0       0       0
   711 ;;Total ram usage:        6 bytes
   712 ;; Hardware stack levels used: 1
   713 ;; Hardware stack levels required when called: 4
   714 ;; This function calls:
   715 ;;		Nothing
   716 ;; This function is called by:
   717 ;;		_main
   718 ;; This function uses a non-reentrant model
   719 ;;
   720                           
   721                           	psect	text1
   722  00152E                     __ptext1:
   723                           	callstack 0
   724  00152E                     ___wmul:
   725                           	callstack 26
   726                           
   727                           ; BSR set to: 0
   728                           
   729                           ;incstack = 0
   730  00152E  5164               	movf	___wmul@multiplier& (0+255),w,b
   731  001530  0366               	mulwf	___wmul@multiplicand& (0+255),b
   732  001532  CFF3 F068          	movff	prodl,___wmul@product
   733  001536  CFF4 F069          	movff	prodh,___wmul@product+1
   734  00153A  5164               	movf	___wmul@multiplier& (0+255),w,b
   735  00153C  0367               	mulwf	(___wmul@multiplicand+1)& (0+255),b
   736  00153E  50F3               	movf	243,w,c
   737  001540  2769               	addwf	(___wmul@product+1)& (0+255),f,b
   738  001542  5165               	movf	(___wmul@multiplier+1)& (0+255),w,b
   739  001544  0366               	mulwf	___wmul@multiplicand& (0+255),b
   740  001546  50F3               	movf	243,w,c
   741  001548  2769               	addwf	(___wmul@product+1)& (0+255),f,b
   742                           
   743                           ; BSR set to: 0
   744  00154A  C068  F064         	movff	___wmul@product,?___wmul
   745  00154E  C069  F065         	movff	___wmul@product+1,?___wmul+1
   746                           
   747                           ; BSR set to: 0
   748  001552  0012               	return		;funcret
   749  001554                     __end_of___wmul:
   750                           	callstack 0
   751                           
   752 ;; *************** function ___lwtoft *****************
   753 ;; Defined at:
   754 ;;		line 28 in file "C:\Program Files\Microchip\xc8\v2.32\pic\sources\c90\common\lwtoft.c"
   755 ;; Parameters:    Size  Location     Type
   756 ;;  c               2   10[BANK0 ] unsigned int 
   757 ;; Auto vars:     Size  Location     Type
   758 ;;		None
   759 ;; Return value:  Size  Location     Type
   760 ;;                  3   10[BANK0 ] float 
   761 ;; Registers used:
   762 ;;		wreg, status,2, status,0, cstack
   763 ;; Tracked objects:
   764 ;;		On entry : 3F/0
   765 ;;		On exit  : 3F/0
   766 ;;		Unchanged: 0/0
   767 ;; Data sizes:     COMRAM   BANK0   BANK1   BANK2   BANK3   BANK4   BANK5   BANK6   BANK7
   768 ;;      Params:         0       3       0       0       0       0       0       0       0
   769 ;;      Locals:         0       0       0       0       0       0       0       0       0
   770 ;;      Temps:          0       0       0       0       0       0       0       0       0
   771 ;;      Totals:         0       3       0       0       0       0       0       0       0
   772 ;;Total ram usage:        3 bytes
   773 ;; Hardware stack levels used: 1
   774 ;; Hardware stack levels required when called: 5
   775 ;; This function calls:
   776 ;;		___ftpack
   777 ;; This function is called by:
   778 ;;		_main
   779 ;; This function uses a non-reentrant model
   780 ;;
   781                           
   782                           	psect	text2
   783  001554                     __ptext2:
   784                           	callstack 0
   785  001554                     ___lwtoft:
   786                           	callstack 25
   787                           
   788                           ; BSR set to: 0
   789                           
   790                           ; BSR set to: 0
   791                           ;incstack = 0
   792  001554  C06A  F060         	movff	___lwtoft@c,___ftpack@arg
   793  001558  C06B  F061         	movff	___lwtoft@c+1,___ftpack@arg+1
   794  00155C  6B62               	clrf	(___ftpack@arg+2)& (0+255),b
   795  00155E  0E8E               	movlw	142
   796  001560  6F63               	movwf	___ftpack@exp& (0+255),b
   797  001562  0E00               	movlw	0
   798  001564  6F64               	movwf	___ftpack@sign& (0+255),b
   799  001566  EC6F  F009         	call	___ftpack	;wreg free
   800  00156A  C060  F06A         	movff	?___ftpack,?___lwtoft
   801  00156E  C061  F06B         	movff	?___ftpack+1,?___lwtoft+1
   802  001572  C062  F06C         	movff	?___ftpack+2,?___lwtoft+2
   803                           
   804                           ; BSR set to: 0
   805  001576  0012               	return		;funcret
   806  001578                     __end_of___lwtoft:
   807                           	callstack 0
   808                           
   809 ;; *************** function ___ftpack *****************
   810 ;; Defined at:
   811 ;;		line 62 in file "C:\Program Files\Microchip\xc8\v2.32\pic\sources\c90\common\float.c"
   812 ;; Parameters:    Size  Location     Type
   813 ;;  arg             3    0[BANK0 ] unsigned um
   814 ;;  exp             1    3[BANK0 ] unsigned char 
   815 ;;  sign            1    4[BANK0 ] unsigned char 
   816 ;; Auto vars:     Size  Location     Type
   817 ;;		None
   818 ;; Return value:  Size  Location     Type
   819 ;;                  3    0[BANK0 ] float 
   820 ;; Registers used:
   821 ;;		wreg, status,2, status,0
   822 ;; Tracked objects:
   823 ;;		On entry : 3F/0
   824 ;;		On exit  : 3F/0
   825 ;;		Unchanged: 0/0
   826 ;; Data sizes:     COMRAM   BANK0   BANK1   BANK2   BANK3   BANK4   BANK5   BANK6   BANK7
   827 ;;      Params:         0       5       0       0       0       0       0       0       0
   828 ;;      Locals:         0       0       0       0       0       0       0       0       0
   829 ;;      Temps:          0       3       0       0       0       0       0       0       0
   830 ;;      Totals:         0       8       0       0       0       0       0       0       0
   831 ;;Total ram usage:        8 bytes
   832 ;; Hardware stack levels used: 1
   833 ;; Hardware stack levels required when called: 4
   834 ;; This function calls:
   835 ;;		Nothing
   836 ;; This function is called by:
   837 ;;		___lwtoft
   838 ;; This function uses a non-reentrant model
   839 ;;
   840                           
   841                           	psect	text3
   842  0012DE                     __ptext3:
   843                           	callstack 0
   844  0012DE                     ___ftpack:
   845                           	callstack 25
   846                           
   847                           ; BSR set to: 0
   848                           
   849                           ; BSR set to: 0
   850                           ;incstack = 0
   851  0012DE  5163               	movf	___ftpack@exp& (0+255),w,b
   852  0012E0  B4D8               	btfsc	status,2,c
   853  0012E2  D005               	goto	u940
   854                           
   855                           ; BSR set to: 0
   856  0012E4  5160               	movf	___ftpack@arg& (0+255),w,b
   857  0012E6  1161               	iorwf	(___ftpack@arg+1)& (0+255),w,b
   858  0012E8  1162               	iorwf	(___ftpack@arg+2)& (0+255),w,b
   859  0012EA  A4D8               	btfss	status,2,c
   860  0012EC  D00C               	goto	l1996
   861  0012EE                     u940:
   862                           
   863                           ; BSR set to: 0
   864  0012EE  0E00               	movlw	0
   865  0012F0  6F60               	movwf	?___ftpack& (0+255),b
   866  0012F2  0E00               	movlw	0
   867  0012F4  6F61               	movwf	(?___ftpack+1)& (0+255),b
   868  0012F6  0E00               	movlw	0
   869  0012F8  6F62               	movwf	(?___ftpack+2)& (0+255),b
   870  0012FA  0012               	return	
   871  0012FC                     l1994:
   872                           
   873                           ; BSR set to: 0
   874  0012FC  2B63               	incf	___ftpack@exp& (0+255),f,b
   875  0012FE  90D8               	bcf	status,0,c
   876  001300  3362               	rrcf	(___ftpack@arg+2)& (0+255),f,b
   877  001302  3361               	rrcf	(___ftpack@arg+1)& (0+255),f,b
   878  001304  3360               	rrcf	___ftpack@arg& (0+255),f,b
   879  001306                     l1996:
   880                           
   881                           ; BSR set to: 0
   882  001306  0E00               	movlw	0
   883  001308  1560               	andwf	___ftpack@arg& (0+255),w,b
   884  00130A  6F65               	movwf	??___ftpack& (0+255),b
   885  00130C  0E00               	movlw	0
   886  00130E  1561               	andwf	(___ftpack@arg+1)& (0+255),w,b
   887  001310  6F66               	movwf	(??___ftpack+1)& (0+255),b
   888  001312  0EFE               	movlw	254
   889  001314  1562               	andwf	(___ftpack@arg+2)& (0+255),w,b
   890  001316  6F67               	movwf	(??___ftpack+2)& (0+255),b
   891  001318  5165               	movf	??___ftpack& (0+255),w,b
   892  00131A  1166               	iorwf	(??___ftpack+1)& (0+255),w,b
   893  00131C  1167               	iorwf	(??___ftpack+2)& (0+255),w,b
   894  00131E  B4D8               	btfsc	status,2,c
   895  001320  D00C               	goto	l2002
   896  001322  D7EC               	goto	l1994
   897  001324                     l1998:
   898                           
   899                           ; BSR set to: 0
   900  001324  2B63               	incf	___ftpack@exp& (0+255),f,b
   901                           
   902                           ; BSR set to: 0
   903  001326  0E01               	movlw	1
   904  001328  2760               	addwf	___ftpack@arg& (0+255),f,b
   905  00132A  0E00               	movlw	0
   906  00132C  2361               	addwfc	(___ftpack@arg+1)& (0+255),f,b
   907  00132E  0E00               	movlw	0
   908  001330  2362               	addwfc	(___ftpack@arg+2)& (0+255),f,b
   909  001332  90D8               	bcf	status,0,c
   910  001334  3362               	rrcf	(___ftpack@arg+2)& (0+255),f,b
   911  001336  3361               	rrcf	(___ftpack@arg+1)& (0+255),f,b
   912  001338  3360               	rrcf	___ftpack@arg& (0+255),f,b
   913  00133A                     l2002:
   914                           
   915                           ; BSR set to: 0
   916  00133A  0E00               	movlw	0
   917  00133C  1560               	andwf	___ftpack@arg& (0+255),w,b
   918  00133E  6F65               	movwf	??___ftpack& (0+255),b
   919  001340  0E00               	movlw	0
   920  001342  1561               	andwf	(___ftpack@arg+1)& (0+255),w,b
   921  001344  6F66               	movwf	(??___ftpack+1)& (0+255),b
   922  001346  0EFF               	movlw	255
   923  001348  1562               	andwf	(___ftpack@arg+2)& (0+255),w,b
   924  00134A  6F67               	movwf	(??___ftpack+2)& (0+255),b
   925  00134C  5165               	movf	??___ftpack& (0+255),w,b
   926  00134E  1166               	iorwf	(??___ftpack+1)& (0+255),w,b
   927  001350  1167               	iorwf	(??___ftpack+2)& (0+255),w,b
   928  001352  B4D8               	btfsc	status,2,c
   929  001354  D006               	goto	l2006
   930  001356  D7E6               	goto	l1998
   931  001358                     l2004:
   932                           
   933                           ; BSR set to: 0
   934  001358  0763               	decf	___ftpack@exp& (0+255),f,b
   935  00135A  90D8               	bcf	status,0,c
   936  00135C  3760               	rlcf	___ftpack@arg& (0+255),f,b
   937  00135E  3761               	rlcf	(___ftpack@arg+1)& (0+255),f,b
   938  001360  3762               	rlcf	(___ftpack@arg+2)& (0+255),f,b
   939  001362                     l2006:
   940                           
   941                           ; BSR set to: 0
   942  001362  BF61               	btfsc	(___ftpack@arg+1)& (0+255),7,b
   943  001364  D003               	goto	u980
   944                           
   945                           ; BSR set to: 0
   946  001366  0E02               	movlw	2
   947  001368  6163               	cpfslt	___ftpack@exp& (0+255),b
   948  00136A  D7F6               	goto	l2004
   949  00136C                     u980:
   950                           
   951                           ; BSR set to: 0
   952  00136C  A163               	btfss	___ftpack@exp& (0+255),0,b
   953                           
   954                           ; BSR set to: 0
   955  00136E  9F61               	bcf	(___ftpack@arg+1)& (0+255),7,b
   956                           
   957                           ; BSR set to: 0
   958  001370  90D8               	bcf	status,0,c
   959  001372  3363               	rrcf	___ftpack@exp& (0+255),f,b
   960  001374  5163               	movf	___ftpack@exp& (0+255),w,b
   961  001376  1362               	iorwf	(___ftpack@arg+2)& (0+255),f,b
   962                           
   963                           ; BSR set to: 0
   964  001378  5164               	movf	___ftpack@sign& (0+255),w,b
   965  00137A  A4D8               	btfss	status,2,c
   966                           
   967                           ; BSR set to: 0
   968  00137C  8F62               	bsf	(___ftpack@arg+2)& (0+255),7,b
   969                           
   970                           ; BSR set to: 0
   971  00137E  C060  F060         	movff	___ftpack@arg,?___ftpack
   972  001382  C061  F061         	movff	___ftpack@arg+1,?___ftpack+1
   973  001386  C062  F062         	movff	___ftpack@arg+2,?___ftpack+2
   974                           
   975                           ; BSR set to: 0
   976  00138A  0012               	return		;funcret
   977  00138C                     __end_of___ftpack:
   978                           	callstack 0
   979                           
   980 ;; *************** function ___ftge *****************
   981 ;; Defined at:
   982 ;;		line 4 in file "C:\Program Files\Microchip\xc8\v2.32\pic\sources\c90\common\ftge.c"
   983 ;; Parameters:    Size  Location     Type
   984 ;;  ff1             3    0[BANK0 ] float 
   985 ;;  ff2             3    3[BANK0 ] float 
   986 ;; Auto vars:     Size  Location     Type
   987 ;;		None
   988 ;; Return value:  Size  Location     Type
   989 ;;		None               void
   990 ;; Registers used:
   991 ;;		wreg, status,2, status,0
   992 ;; Tracked objects:
   993 ;;		On entry : 3F/0
   994 ;;		On exit  : 3F/0
   995 ;;		Unchanged: 0/0
   996 ;; Data sizes:     COMRAM   BANK0   BANK1   BANK2   BANK3   BANK4   BANK5   BANK6   BANK7
   997 ;;      Params:         0       6       0       0       0       0       0       0       0
   998 ;;      Locals:         0       0       0       0       0       0       0       0       0
   999 ;;      Temps:          0       3       0       0       0       0       0       0       0
  1000 ;;      Totals:         0       9       0       0       0       0       0       0       0
  1001 ;;Total ram usage:        9 bytes
  1002 ;; Hardware stack levels used: 1
  1003 ;; Hardware stack levels required when called: 4
  1004 ;; This function calls:
  1005 ;;		Nothing
  1006 ;; This function is called by:
  1007 ;;		_main
  1008 ;; This function uses a non-reentrant model
  1009 ;;
  1010                           
  1011                           	psect	text4
  1012  00143A                     __ptext4:
  1013                           	callstack 0
  1014  00143A                     ___ftge:
  1015                           	callstack 26
  1016                           
  1017                           ; BSR set to: 0
  1018                           
  1019                           ; BSR set to: 0
  1020                           ;incstack = 0
  1021  00143A  AF62               	btfss	(___ftge@ff1+2)& (0+255),7,b
  1022  00143C  D00F               	goto	l2040
  1023                           
  1024                           ; BSR set to: 0
  1025  00143E  0E00               	movlw	0
  1026  001440  6F66               	movwf	??___ftge& (0+255),b
  1027  001442  0E00               	movlw	0
  1028  001444  6F67               	movwf	(??___ftge+1)& (0+255),b
  1029  001446  0E80               	movlw	128
  1030  001448  6F68               	movwf	(??___ftge+2)& (0+255),b
  1031  00144A  5160               	movf	___ftge@ff1& (0+255),w,b
  1032  00144C  5D66               	subwf	??___ftge& (0+255),w,b
  1033  00144E  6F60               	movwf	___ftge@ff1& (0+255),b
  1034  001450  5161               	movf	(___ftge@ff1+1)& (0+255),w,b
  1035  001452  5967               	subwfb	(??___ftge+1)& (0+255),w,b
  1036  001454  6F61               	movwf	(___ftge@ff1+1)& (0+255),b
  1037  001456  5162               	movf	(___ftge@ff1+2)& (0+255),w,b
  1038  001458  5968               	subwfb	(??___ftge+2)& (0+255),w,b
  1039  00145A  6F62               	movwf	(___ftge@ff1+2)& (0+255),b
  1040  00145C                     l2040:
  1041                           
  1042                           ; BSR set to: 0
  1043  00145C  AF65               	btfss	(___ftge@ff2+2)& (0+255),7,b
  1044  00145E  D00F               	goto	l2044
  1045                           
  1046                           ; BSR set to: 0
  1047  001460  0E00               	movlw	0
  1048  001462  6F66               	movwf	??___ftge& (0+255),b
  1049  001464  0E00               	movlw	0
  1050  001466  6F67               	movwf	(??___ftge+1)& (0+255),b
  1051  001468  0E80               	movlw	128
  1052  00146A  6F68               	movwf	(??___ftge+2)& (0+255),b
  1053  00146C  5163               	movf	___ftge@ff2& (0+255),w,b
  1054  00146E  5D66               	subwf	??___ftge& (0+255),w,b
  1055  001470  6F63               	movwf	___ftge@ff2& (0+255),b
  1056  001472  5164               	movf	(___ftge@ff2+1)& (0+255),w,b
  1057  001474  5967               	subwfb	(??___ftge+1)& (0+255),w,b
  1058  001476  6F64               	movwf	(___ftge@ff2+1)& (0+255),b
  1059  001478  5165               	movf	(___ftge@ff2+2)& (0+255),w,b
  1060  00147A  5968               	subwfb	(??___ftge+2)& (0+255),w,b
  1061  00147C  6F65               	movwf	(___ftge@ff2+2)& (0+255),b
  1062  00147E                     l2044:
  1063                           
  1064                           ; BSR set to: 0
  1065  00147E  0E00               	movlw	0
  1066  001480  1B60               	xorwf	___ftge@ff1& (0+255),f,b
  1067  001482  0E00               	movlw	0
  1068  001484  1B61               	xorwf	(___ftge@ff1+1)& (0+255),f,b
  1069  001486  0E80               	movlw	128
  1070  001488  1B62               	xorwf	(___ftge@ff1+2)& (0+255),f,b
  1071                           
  1072                           ; BSR set to: 0
  1073  00148A  0E00               	movlw	0
  1074  00148C  1B63               	xorwf	___ftge@ff2& (0+255),f,b
  1075  00148E  0E00               	movlw	0
  1076  001490  1B64               	xorwf	(___ftge@ff2+1)& (0+255),f,b
  1077  001492  0E80               	movlw	128
  1078  001494  1B65               	xorwf	(___ftge@ff2+2)& (0+255),f,b
  1079  001496  5163               	movf	___ftge@ff2& (0+255),w,b
  1080  001498  5D60               	subwf	___ftge@ff1& (0+255),w,b
  1081  00149A  5164               	movf	(___ftge@ff2+1)& (0+255),w,b
  1082  00149C  5961               	subwfb	(___ftge@ff1+1)& (0+255),w,b
  1083  00149E  5165               	movf	(___ftge@ff2+2)& (0+255),w,b
  1084  0014A0  5962               	subwfb	(___ftge@ff1+2)& (0+255),w,b
  1085  0014A2  B0D8               	btfsc	status,0,c
  1086  0014A4  D002               	goto	l2050
  1087                           
  1088                           ; BSR set to: 0
  1089  0014A6  90D8               	bcf	status,0,c
  1090  0014A8  0012               	return	
  1091  0014AA                     l2050:
  1092                           
  1093                           ; BSR set to: 0
  1094  0014AA  80D8               	bsf	status,0,c
  1095                           
  1096                           ; BSR set to: 0
  1097  0014AC  0012               	return		;funcret
  1098  0014AE                     __end_of___ftge:
  1099                           	callstack 0
  1100                           
  1101 ;; *************** function _Transmitir *****************
  1102 ;; Defined at:
  1103 ;;		line 131 in file "ProyectoCarro.c"
  1104 ;; Parameters:    Size  Location     Type
  1105 ;;  BufferT         1    wreg     unsigned char 
  1106 ;; Auto vars:     Size  Location     Type
  1107 ;;  BufferT         1    0[BANK0 ] unsigned char 
  1108 ;; Return value:  Size  Location     Type
  1109 ;;                  1    wreg      void 
  1110 ;; Registers used:
  1111 ;;		wreg
  1112 ;; Tracked objects:
  1113 ;;		On entry : 3F/0
  1114 ;;		On exit  : 0/0
  1115 ;;		Unchanged: 0/0
  1116 ;; Data sizes:     COMRAM   BANK0   BANK1   BANK2   BANK3   BANK4   BANK5   BANK6   BANK7
  1117 ;;      Params:         0       0       0       0       0       0       0       0       0
  1118 ;;      Locals:         0       1       0       0       0       0       0       0       0
  1119 ;;      Temps:          0       0       0       0       0       0       0       0       0
  1120 ;;      Totals:         0       1       0       0       0       0       0       0       0
  1121 ;;Total ram usage:        1 bytes
  1122 ;; Hardware stack levels used: 1
  1123 ;; Hardware stack levels required when called: 4
  1124 ;; This function calls:
  1125 ;;		Nothing
  1126 ;; This function is called by:
  1127 ;;		_main
  1128 ;; This function uses a non-reentrant model
  1129 ;;
  1130                           
  1131                           	psect	text5
  1132  00159C                     __ptext5:
  1133                           	callstack 0
  1134  00159C                     _Transmitir:
  1135                           	callstack 26
  1136                           
  1137                           ; BSR set to: 0
  1138                           ;incstack = 0
  1139                           ;Transmitir@BufferT stored from wreg
  1140  00159C  6F60               	movwf	Transmitir@BufferT& (0+255),b
  1141  00159E                     
  1142                           ;ProyectoCarro.c: 132: while(TRMT==0);
  1143  00159E  A2AC               	btfss	4012,1,c	;volatile
  1144  0015A0  D7FE               	goto	l2026
  1145                           
  1146                           ;ProyectoCarro.c: 133: TXREG=BufferT;
  1147  0015A2  C060  FFAD         	movff	Transmitir@BufferT,4013	;volatile
  1148  0015A6  0012               	return		;funcret
  1149  0015A8                     __end_of_Transmitir:
  1150                           	callstack 0
  1151                           
  1152 ;; *************** function _Conversion *****************
  1153 ;; Defined at:
  1154 ;;		line 136 in file "ProyectoCarro.c"
  1155 ;; Parameters:    Size  Location     Type
  1156 ;;  canal           1    wreg     unsigned char 
  1157 ;; Auto vars:     Size  Location     Type
  1158 ;;  canal           1    3[BANK0 ] unsigned char 
  1159 ;; Return value:  Size  Location     Type
  1160 ;;                  2    0[BANK0 ] unsigned int 
  1161 ;; Registers used:
  1162 ;;		wreg, status,2, status,0
  1163 ;; Tracked objects:
  1164 ;;		On entry : 0/0
  1165 ;;		On exit  : 0/0
  1166 ;;		Unchanged: 0/0
  1167 ;; Data sizes:     COMRAM   BANK0   BANK1   BANK2   BANK3   BANK4   BANK5   BANK6   BANK7
  1168 ;;      Params:         0       2       0       0       0       0       0       0       0
  1169 ;;      Locals:         0       1       0       0       0       0       0       0       0
  1170 ;;      Temps:          0       1       0       0       0       0       0       0       0
  1171 ;;      Totals:         0       4       0       0       0       0       0       0       0
  1172 ;;Total ram usage:        4 bytes
  1173 ;; Hardware stack levels used: 1
  1174 ;; Hardware stack levels required when called: 4
  1175 ;; This function calls:
  1176 ;;		Nothing
  1177 ;; This function is called by:
  1178 ;;		_main
  1179 ;; This function uses a non-reentrant model
  1180 ;;
  1181                           
  1182                           	psect	text6
  1183  0014DA                     __ptext6:
  1184                           	callstack 0
  1185  0014DA                     _Conversion:
  1186                           	callstack 26
  1187                           
  1188                           ;incstack = 0
  1189                           ;Conversion@canal stored from wreg
  1190  0014DA  0100               	movlb	0	; () banked
  1191  0014DC  6F63               	movwf	Conversion@canal& (0+255),b
  1192                           
  1193                           ;ProyectoCarro.c: 137: ADCON0=(ADCON0 & 0b00000011) | (canal<<2);
  1194  0014DE  C063  F062         	movff	Conversion@canal,??_Conversion
  1195  0014E2  0100               	movlb	0	; () banked
  1196  0014E4  90D8               	bcf	status,0,c
  1197  0014E6  3762               	rlcf	??_Conversion& (0+255),f,b
  1198  0014E8  90D8               	bcf	status,0,c
  1199  0014EA  3762               	rlcf	??_Conversion& (0+255),f,b
  1200  0014EC  50C2               	movf	194,w,c	;volatile
  1201  0014EE  0B03               	andlw	3
  1202  0014F0  1162               	iorwf	??_Conversion& (0+255),w,b
  1203  0014F2  6EC2               	movwf	194,c	;volatile
  1204                           
  1205                           ; BSR set to: 0
  1206                           ;ProyectoCarro.c: 138: GO=1;
  1207  0014F4  82C2               	bsf	4034,1,c	;volatile
  1208  0014F6                     l236:
  1209  0014F6  B2C2               	btfsc	4034,1,c	;volatile
  1210  0014F8  D7FE               	goto	l236
  1211                           
  1212                           ;ProyectoCarro.c: 140: return ADRES;
  1213  0014FA  CFC3 F060          	movff	4035,?_Conversion	;volatile
  1214  0014FE  CFC4 F061          	movff	4036,?_Conversion+1	;volatile
  1215  001502  0012               	return		;funcret
  1216  001504                     __end_of_Conversion:
  1217                           	callstack 0
  1218                           
  1219 ;; *************** function _ISR *****************
  1220 ;; Defined at:
  1221 ;;		line 104 in file "ProyectoCarro.c"
  1222 ;; Parameters:    Size  Location     Type
  1223 ;;		None
  1224 ;; Auto vars:     Size  Location     Type
  1225 ;;		None
  1226 ;; Return value:  Size  Location     Type
  1227 ;;                  1    wreg      void 
  1228 ;; Registers used:
  1229 ;;		wreg, status,2, status,0, cstack
  1230 ;; Tracked objects:
  1231 ;;		On entry : 0/0
  1232 ;;		On exit  : 0/0
  1233 ;;		Unchanged: 0/0
  1234 ;; Data sizes:     COMRAM   BANK0   BANK1   BANK2   BANK3   BANK4   BANK5   BANK6   BANK7
  1235 ;;      Params:         0       0       0       0       0       0       0       0       0
  1236 ;;      Locals:         0       0       0       0       0       0       0       0       0
  1237 ;;      Temps:          0       0       0       0       0       0       0       0       0
  1238 ;;      Totals:         0       0       0       0       0       0       0       0       0
  1239 ;;Total ram usage:        0 bytes
  1240 ;; Hardware stack levels used: 1
  1241 ;; Hardware stack levels required when called: 3
  1242 ;; This function calls:
  1243 ;;		_LecturaEntrada
  1244 ;;		_Recibir
  1245 ;; This function is called by:
  1246 ;;		Interrupt level 2
  1247 ;; This function uses a non-reentrant model
  1248 ;;
  1249                           
  1250                           	psect	intcode
  1251  000008                     __pintcode:
  1252                           	callstack 0
  1253  000008                     _ISR:
  1254                           	callstack 25
  1255                           
  1256                           ;incstack = 0
  1257  000008  823C               	bsf	btemp,1,c	;set compiler interrupt flag (level 2)
  1258  00000A  ED82  F00A         	call	int_func,f	;refresh shadow registers
  1259                           
  1260                           	psect	intcode_body
  1261  001504                     __pintcode_body:
  1262                           	callstack 25
  1263  001504                     int_func:
  1264                           	callstack 25
  1265  001504  0006               	pop		; remove dummy address from shadow register refresh
  1266                           
  1267                           ;ProyectoCarro.c: 107: if(RCIF==1){
  1268  001506  AA9E               	btfss	3998,5,c	;volatile
  1269  001508  D007               	goto	i2l1974
  1270                           
  1271                           ;ProyectoCarro.c: 108: Caso=Recibir();
  1272  00150A  ECD4  F00A         	call	_Recibir	;wreg free
  1273  00150E  6E32               	movwf	_Caso^0,c
  1274                           
  1275                           ;ProyectoCarro.c: 109: LecturaEntrada(Caso);
  1276  001510  5032               	movf	_Caso^0,w,c
  1277  001512  EC09  F000         	call	_LecturaEntrada
  1278                           
  1279                           ;ProyectoCarro.c: 110: RCIF=0;
  1280  001516  9A9E               	bcf	3998,5,c	;volatile
  1281  001518                     i2l1974:
  1282                           
  1283                           ;ProyectoCarro.c: 111: };ProyectoCarro.c: 114: if(RBIF==1){
  1284  001518  B0F2               	btfsc	4082,0,c	;volatile
  1285                           
  1286                           ;ProyectoCarro.c: 115: RBIF=0;
  1287  00151A  90F2               	bcf	4082,0,c	;volatile
  1288                           
  1289                           ;ProyectoCarro.c: 116: };ProyectoCarro.c: 118: if(TMR0IF==1){
  1290  00151C  A4F2               	btfss	4082,2,c	;volatile
  1291  00151E  D005               	goto	i2l221
  1292                           
  1293                           ;ProyectoCarro.c: 119: TMR0=34286;
  1294  001520  0E85               	movlw	133
  1295  001522  6ED7               	movwf	215,c	;volatile
  1296  001524  0EEE               	movlw	238
  1297  001526  6ED6               	movwf	214,c	;volatile
  1298                           
  1299                           ;ProyectoCarro.c: 120: TMR0IF=0;
  1300  001528  94F2               	bcf	4082,2,c	;volatile
  1301  00152A                     i2l221:
  1302  00152A  923C               	bcf	btemp,1,c	;clear compiler interrupt flag (level 2)
  1303  00152C  0011               	retfie		f
  1304  00152E                     __end_of_ISR:
  1305                           	callstack 0
  1306                           
  1307 ;; *************** function _Recibir *****************
  1308 ;; Defined at:
  1309 ;;		line 126 in file "ProyectoCarro.c"
  1310 ;; Parameters:    Size  Location     Type
  1311 ;;		None
  1312 ;; Auto vars:     Size  Location     Type
  1313 ;;		None
  1314 ;; Return value:  Size  Location     Type
  1315 ;;                  1    wreg      unsigned char 
  1316 ;; Registers used:
  1317 ;;		wreg, status,2
  1318 ;; Tracked objects:
  1319 ;;		On entry : 0/0
  1320 ;;		On exit  : 0/0
  1321 ;;		Unchanged: 0/0
  1322 ;; Data sizes:     COMRAM   BANK0   BANK1   BANK2   BANK3   BANK4   BANK5   BANK6   BANK7
  1323 ;;      Params:         0       0       0       0       0       0       0       0       0
  1324 ;;      Locals:         0       0       0       0       0       0       0       0       0
  1325 ;;      Temps:          0       0       0       0       0       0       0       0       0
  1326 ;;      Totals:         0       0       0       0       0       0       0       0       0
  1327 ;;Total ram usage:        0 bytes
  1328 ;; Hardware stack levels used: 1
  1329 ;; This function calls:
  1330 ;;		Nothing
  1331 ;; This function is called by:
  1332 ;;		_ISR
  1333 ;; This function uses a non-reentrant model
  1334 ;;
  1335                           
  1336                           	psect	text8
  1337  0015A8                     __ptext8:
  1338                           	callstack 0
  1339  0015A8                     _Recibir:
  1340                           	callstack 27
  1341                           
  1342                           ;ProyectoCarro.c: 127: while(RCIF==0);
  1343                           
  1344                           ;incstack = 0
  1345  0015A8  AA9E               	btfss	3998,5,c	;volatile
  1346  0015AA  D7FE               	goto	_Recibir
  1347                           
  1348                           ;ProyectoCarro.c: 128: return RCREG;
  1349  0015AC  50AE               	movf	174,w,c	;volatile
  1350  0015AE  0012               	return		;funcret
  1351  0015B0                     __end_of_Recibir:
  1352                           	callstack 0
  1353                           
  1354 ;; *************** function _LecturaEntrada *****************
  1355 ;; Defined at:
  1356 ;;		line 182 in file "ProyectoCarro.c"
  1357 ;; Parameters:    Size  Location     Type
  1358 ;;  entrada         1    wreg     unsigned char 
  1359 ;; Auto vars:     Size  Location     Type
  1360 ;;  entrada         1   42[COMRAM] unsigned char 
  1361 ;; Return value:  Size  Location     Type
  1362 ;;                  1    wreg      void 
  1363 ;; Registers used:
  1364 ;;		wreg, status,2, status,0, cstack
  1365 ;; Tracked objects:
  1366 ;;		On entry : 0/0
  1367 ;;		On exit  : 0/0
  1368 ;;		Unchanged: 0/0
  1369 ;; Data sizes:     COMRAM   BANK0   BANK1   BANK2   BANK3   BANK4   BANK5   BANK6   BANK7
  1370 ;;      Params:         0       0       0       0       0       0       0       0       0
  1371 ;;      Locals:         1       0       0       0       0       0       0       0       0
  1372 ;;      Temps:          0       0       0       0       0       0       0       0       0
  1373 ;;      Totals:         1       0       0       0       0       0       0       0       0
  1374 ;;Total ram usage:        1 bytes
  1375 ;; Hardware stack levels used: 1
  1376 ;; Hardware stack levels required when called: 2
  1377 ;; This function calls:
  1378 ;;		___ftmul
  1379 ;;		___fttol
  1380 ;;		___lbtoft
  1381 ;; This function is called by:
  1382 ;;		_ISR
  1383 ;; This function uses a non-reentrant model
  1384 ;;
  1385                           
  1386                           	psect	text9
  1387  000012                     __ptext9:
  1388                           	callstack 0
  1389  000012                     _LecturaEntrada:
  1390                           	callstack 25
  1391                           
  1392                           ;incstack = 0
  1393                           ;LecturaEntrada@entrada stored from wreg
  1394  000012  6E2B               	movwf	LecturaEntrada@entrada^0,c
  1395                           
  1396                           ;ProyectoCarro.c: 184: if(activado==1||entrada=='a'){
  1397  000014  043A               	decf	_activado^0,w,c
  1398  000016  B4D8               	btfsc	status,2,c
  1399  000018  EF48  F007         	goto	i2l1888
  1400  00001C  0E61               	movlw	97
  1401  00001E  182B               	xorwf	LecturaEntrada@entrada^0,w,c
  1402  000020  A4D8               	btfss	status,2,c
  1403  000022  0012               	return	
  1404  000024  EF48  F007         	goto	i2l1888
  1405  000028                     i2l1704:
  1406                           
  1407                           ;ProyectoCarro.c: 188: Duty=0;
  1408  000028  0E00               	movlw	0
  1409  00002A  6E2C               	movwf	_Duty^0,c
  1410  00002C  0E00               	movlw	0
  1411  00002E  6E2D               	movwf	(_Duty+1)^0,c
  1412  000030  0E00               	movlw	0
  1413  000032  6E2E               	movwf	(_Duty+2)^0,c
  1414                           
  1415                           ;ProyectoCarro.c: 189: CCPR1L=Duty*PR2;
  1416  000034  C02C  F010         	movff	_Duty,___ftmul@f2
  1417  000038  C02D  F011         	movff	_Duty+1,___ftmul@f2+1
  1418  00003C  C02E  F012         	movff	_Duty+2,___ftmul@f2+2
  1419  000040  50CB               	movf	203,w,c	;volatile
  1420  000042  ECBC  F00A         	call	___lbtoft
  1421  000046  C009  F00D         	movff	?___lbtoft,___ftmul@f1
  1422  00004A  C00A  F00E         	movff	?___lbtoft+1,___ftmul@f1+1
  1423  00004E  C00B  F00F         	movff	?___lbtoft+2,___ftmul@f1+2
  1424  000052  EC8C  F008         	call	___ftmul	;wreg free
  1425  000056  C00D  F01C         	movff	?___ftmul,___fttol@f1
  1426  00005A  C00E  F01D         	movff	?___ftmul+1,___fttol@f1+1
  1427  00005E  C00F  F01E         	movff	?___ftmul+2,___fttol@f1+2
  1428  000062  EC06  F009         	call	___fttol	;wreg free
  1429  000066  501C               	movf	?___fttol^0,w,c
  1430  000068  6EBE               	movwf	190,c	;volatile
  1431                           
  1432                           ;ProyectoCarro.c: 190: CCPR2L=Duty*PR2;
  1433  00006A  C02C  F010         	movff	_Duty,___ftmul@f2
  1434  00006E  C02D  F011         	movff	_Duty+1,___ftmul@f2+1
  1435  000072  C02E  F012         	movff	_Duty+2,___ftmul@f2+2
  1436  000076  50CB               	movf	203,w,c	;volatile
  1437  000078  ECBC  F00A         	call	___lbtoft
  1438  00007C  C009  F00D         	movff	?___lbtoft,___ftmul@f1
  1439  000080  C00A  F00E         	movff	?___lbtoft+1,___ftmul@f1+1
  1440  000084  C00B  F00F         	movff	?___lbtoft+2,___ftmul@f1+2
  1441  000088  EC8C  F008         	call	___ftmul	;wreg free
  1442  00008C  C00D  F01C         	movff	?___ftmul,___fttol@f1
  1443  000090  C00E  F01D         	movff	?___ftmul+1,___fttol@f1+1
  1444  000094  C00F  F01E         	movff	?___ftmul+2,___fttol@f1+2
  1445  000098  EC06  F009         	call	___fttol	;wreg free
  1446  00009C  501C               	movf	?___fttol^0,w,c
  1447  00009E  6EBB               	movwf	187,c	;volatile
  1448                           
  1449                           ;ProyectoCarro.c: 191: LATD=0b10100001;
  1450  0000A0  0EA1               	movlw	161
  1451  0000A2  6E8C               	movwf	140,c	;volatile
  1452                           
  1453                           ;ProyectoCarro.c: 192: activado=1;
  1454  0000A4  0E01               	movlw	1
  1455  0000A6  6E3A               	movwf	_activado^0,c
  1456                           
  1457                           ;ProyectoCarro.c: 194: break;
  1458  0000A8  0012               	return	
  1459  0000AA                     i2l1710:
  1460                           
  1461                           ;ProyectoCarro.c: 196: Duty=0;
  1462  0000AA  0E00               	movlw	0
  1463  0000AC  6E2C               	movwf	_Duty^0,c
  1464  0000AE  0E00               	movlw	0
  1465  0000B0  6E2D               	movwf	(_Duty+1)^0,c
  1466  0000B2  0E00               	movlw	0
  1467  0000B4  6E2E               	movwf	(_Duty+2)^0,c
  1468                           
  1469                           ;ProyectoCarro.c: 197: CCPR1L=Duty*PR2;
  1470  0000B6  C02C  F010         	movff	_Duty,___ftmul@f2
  1471  0000BA  C02D  F011         	movff	_Duty+1,___ftmul@f2+1
  1472  0000BE  C02E  F012         	movff	_Duty+2,___ftmul@f2+2
  1473  0000C2  50CB               	movf	203,w,c	;volatile
  1474  0000C4  ECBC  F00A         	call	___lbtoft
  1475  0000C8  C009  F00D         	movff	?___lbtoft,___ftmul@f1
  1476  0000CC  C00A  F00E         	movff	?___lbtoft+1,___ftmul@f1+1
  1477  0000D0  C00B  F00F         	movff	?___lbtoft+2,___ftmul@f1+2
  1478  0000D4  EC8C  F008         	call	___ftmul	;wreg free
  1479  0000D8  C00D  F01C         	movff	?___ftmul,___fttol@f1
  1480  0000DC  C00E  F01D         	movff	?___ftmul+1,___fttol@f1+1
  1481  0000E0  C00F  F01E         	movff	?___ftmul+2,___fttol@f1+2
  1482  0000E4  EC06  F009         	call	___fttol	;wreg free
  1483  0000E8  501C               	movf	?___fttol^0,w,c
  1484  0000EA  6EBE               	movwf	190,c	;volatile
  1485                           
  1486                           ;ProyectoCarro.c: 198: CCPR2L=Duty*PR2;
  1487  0000EC  C02C  F010         	movff	_Duty,___ftmul@f2
  1488  0000F0  C02D  F011         	movff	_Duty+1,___ftmul@f2+1
  1489  0000F4  C02E  F012         	movff	_Duty+2,___ftmul@f2+2
  1490  0000F8  50CB               	movf	203,w,c	;volatile
  1491  0000FA  ECBC  F00A         	call	___lbtoft
  1492  0000FE  C009  F00D         	movff	?___lbtoft,___ftmul@f1
  1493  000102  C00A  F00E         	movff	?___lbtoft+1,___ftmul@f1+1
  1494  000106  C00B  F00F         	movff	?___lbtoft+2,___ftmul@f1+2
  1495  00010A  EC8C  F008         	call	___ftmul	;wreg free
  1496  00010E  C00D  F01C         	movff	?___ftmul,___fttol@f1
  1497  000112  C00E  F01D         	movff	?___ftmul+1,___fttol@f1+1
  1498  000116  C00F  F01E         	movff	?___ftmul+2,___fttol@f1+2
  1499  00011A  EC06  F009         	call	___fttol	;wreg free
  1500  00011E  501C               	movf	?___fttol^0,w,c
  1501  000120  6EBB               	movwf	187,c	;volatile
  1502                           
  1503                           ;ProyectoCarro.c: 199: LATD=0b00000010;
  1504  000122  0E02               	movlw	2
  1505  000124  6E8C               	movwf	140,c	;volatile
  1506                           
  1507                           ;ProyectoCarro.c: 200: activado=0;
  1508  000126  0E00               	movlw	0
  1509  000128  6E3A               	movwf	_activado^0,c
  1510                           
  1511                           ;ProyectoCarro.c: 201: break;
  1512  00012A  0012               	return	
  1513  00012C                     i2l1716:
  1514                           
  1515                           ;ProyectoCarro.c: 203: Duty=0;
  1516  00012C  0E00               	movlw	0
  1517  00012E  6E2C               	movwf	_Duty^0,c
  1518  000130  0E00               	movlw	0
  1519  000132  6E2D               	movwf	(_Duty+1)^0,c
  1520  000134  0E00               	movlw	0
  1521  000136  6E2E               	movwf	(_Duty+2)^0,c
  1522                           
  1523                           ;ProyectoCarro.c: 204: CCPR1L=Duty*PR2;
  1524  000138  C02C  F010         	movff	_Duty,___ftmul@f2
  1525  00013C  C02D  F011         	movff	_Duty+1,___ftmul@f2+1
  1526  000140  C02E  F012         	movff	_Duty+2,___ftmul@f2+2
  1527  000144  50CB               	movf	203,w,c	;volatile
  1528  000146  ECBC  F00A         	call	___lbtoft
  1529  00014A  C009  F00D         	movff	?___lbtoft,___ftmul@f1
  1530  00014E  C00A  F00E         	movff	?___lbtoft+1,___ftmul@f1+1
  1531  000152  C00B  F00F         	movff	?___lbtoft+2,___ftmul@f1+2
  1532  000156  EC8C  F008         	call	___ftmul	;wreg free
  1533  00015A  C00D  F01C         	movff	?___ftmul,___fttol@f1
  1534  00015E  C00E  F01D         	movff	?___ftmul+1,___fttol@f1+1
  1535  000162  C00F  F01E         	movff	?___ftmul+2,___fttol@f1+2
  1536  000166  EC06  F009         	call	___fttol	;wreg free
  1537  00016A  501C               	movf	?___fttol^0,w,c
  1538  00016C  6EBE               	movwf	190,c	;volatile
  1539                           
  1540                           ;ProyectoCarro.c: 205: CCPR2L=Duty*PR2;
  1541  00016E  C02C  F010         	movff	_Duty,___ftmul@f2
  1542  000172  C02D  F011         	movff	_Duty+1,___ftmul@f2+1
  1543  000176  C02E  F012         	movff	_Duty+2,___ftmul@f2+2
  1544  00017A  50CB               	movf	203,w,c	;volatile
  1545  00017C  ECBC  F00A         	call	___lbtoft
  1546  000180  C009  F00D         	movff	?___lbtoft,___ftmul@f1
  1547  000184  C00A  F00E         	movff	?___lbtoft+1,___ftmul@f1+1
  1548  000188  C00B  F00F         	movff	?___lbtoft+2,___ftmul@f1+2
  1549  00018C  EC8C  F008         	call	___ftmul	;wreg free
  1550  000190  C00D  F01C         	movff	?___ftmul,___fttol@f1
  1551  000194  C00E  F01D         	movff	?___ftmul+1,___fttol@f1+1
  1552  000198  C00F  F01E         	movff	?___ftmul+2,___fttol@f1+2
  1553  00019C  EC06  F009         	call	___fttol	;wreg free
  1554  0001A0  501C               	movf	?___fttol^0,w,c
  1555  0001A2  6EBB               	movwf	187,c	;volatile
  1556                           
  1557                           ;ProyectoCarro.c: 206: LATD=0b10100001;
  1558  0001A4  0EA1               	movlw	161
  1559  0001A6  6E8C               	movwf	140,c	;volatile
  1560                           
  1561                           ;ProyectoCarro.c: 207: break;
  1562  0001A8  0012               	return	
  1563  0001AA                     i2l1722:
  1564                           
  1565                           ;ProyectoCarro.c: 210: Duty=0;
  1566  0001AA  0E00               	movlw	0
  1567  0001AC  6E2C               	movwf	_Duty^0,c
  1568  0001AE  0E00               	movlw	0
  1569  0001B0  6E2D               	movwf	(_Duty+1)^0,c
  1570  0001B2  0E00               	movlw	0
  1571  0001B4  6E2E               	movwf	(_Duty+2)^0,c
  1572                           
  1573                           ;ProyectoCarro.c: 211: CCPR1L=Duty*PR2;
  1574  0001B6  C02C  F010         	movff	_Duty,___ftmul@f2
  1575  0001BA  C02D  F011         	movff	_Duty+1,___ftmul@f2+1
  1576  0001BE  C02E  F012         	movff	_Duty+2,___ftmul@f2+2
  1577  0001C2  50CB               	movf	203,w,c	;volatile
  1578  0001C4  ECBC  F00A         	call	___lbtoft
  1579  0001C8  C009  F00D         	movff	?___lbtoft,___ftmul@f1
  1580  0001CC  C00A  F00E         	movff	?___lbtoft+1,___ftmul@f1+1
  1581  0001D0  C00B  F00F         	movff	?___lbtoft+2,___ftmul@f1+2
  1582  0001D4  EC8C  F008         	call	___ftmul	;wreg free
  1583  0001D8  C00D  F01C         	movff	?___ftmul,___fttol@f1
  1584  0001DC  C00E  F01D         	movff	?___ftmul+1,___fttol@f1+1
  1585  0001E0  C00F  F01E         	movff	?___ftmul+2,___fttol@f1+2
  1586  0001E4  EC06  F009         	call	___fttol	;wreg free
  1587  0001E8  501C               	movf	?___fttol^0,w,c
  1588  0001EA  6EBE               	movwf	190,c	;volatile
  1589                           
  1590                           ;ProyectoCarro.c: 212: CCPR2L=Duty*PR2;
  1591  0001EC  C02C  F010         	movff	_Duty,___ftmul@f2
  1592  0001F0  C02D  F011         	movff	_Duty+1,___ftmul@f2+1
  1593  0001F4  C02E  F012         	movff	_Duty+2,___ftmul@f2+2
  1594  0001F8  50CB               	movf	203,w,c	;volatile
  1595  0001FA  ECBC  F00A         	call	___lbtoft
  1596  0001FE  C009  F00D         	movff	?___lbtoft,___ftmul@f1
  1597  000202  C00A  F00E         	movff	?___lbtoft+1,___ftmul@f1+1
  1598  000206  C00B  F00F         	movff	?___lbtoft+2,___ftmul@f1+2
  1599  00020A  EC8C  F008         	call	___ftmul	;wreg free
  1600  00020E  C00D  F01C         	movff	?___ftmul,___fttol@f1
  1601  000212  C00E  F01D         	movff	?___ftmul+1,___fttol@f1+1
  1602  000216  C00F  F01E         	movff	?___ftmul+2,___fttol@f1+2
  1603  00021A  EC06  F009         	call	___fttol	;wreg free
  1604  00021E  501C               	movf	?___fttol^0,w,c
  1605  000220  6EBB               	movwf	187,c	;volatile
  1606                           
  1607                           ;ProyectoCarro.c: 213: LATD=0b01010001;
  1608  000222  0E51               	movlw	81
  1609  000224  6E8C               	movwf	140,c	;volatile
  1610                           
  1611                           ;ProyectoCarro.c: 214: break;
  1612  000226  0012               	return	
  1613  000228                     i2l1728:
  1614                           
  1615                           ;ProyectoCarro.c: 216: Duty=0.40;
  1616  000228  0ECD               	movlw	205
  1617  00022A  6E2C               	movwf	_Duty^0,c
  1618  00022C  0ECC               	movlw	204
  1619  00022E  6E2D               	movwf	(_Duty+1)^0,c
  1620  000230  0E3E               	movlw	62
  1621  000232  6E2E               	movwf	(_Duty+2)^0,c
  1622                           
  1623                           ;ProyectoCarro.c: 217: CCPR1L=Duty*PR2;
  1624  000234  C02C  F010         	movff	_Duty,___ftmul@f2
  1625  000238  C02D  F011         	movff	_Duty+1,___ftmul@f2+1
  1626  00023C  C02E  F012         	movff	_Duty+2,___ftmul@f2+2
  1627  000240  50CB               	movf	203,w,c	;volatile
  1628  000242  ECBC  F00A         	call	___lbtoft
  1629  000246  C009  F00D         	movff	?___lbtoft,___ftmul@f1
  1630  00024A  C00A  F00E         	movff	?___lbtoft+1,___ftmul@f1+1
  1631  00024E  C00B  F00F         	movff	?___lbtoft+2,___ftmul@f1+2
  1632  000252  EC8C  F008         	call	___ftmul	;wreg free
  1633  000256  C00D  F01C         	movff	?___ftmul,___fttol@f1
  1634  00025A  C00E  F01D         	movff	?___ftmul+1,___fttol@f1+1
  1635  00025E  C00F  F01E         	movff	?___ftmul+2,___fttol@f1+2
  1636  000262  EC06  F009         	call	___fttol	;wreg free
  1637  000266  501C               	movf	?___fttol^0,w,c
  1638  000268  6EBE               	movwf	190,c	;volatile
  1639                           
  1640                           ;ProyectoCarro.c: 218: CCPR2L=Duty*PR2;
  1641  00026A  C02C  F010         	movff	_Duty,___ftmul@f2
  1642  00026E  C02D  F011         	movff	_Duty+1,___ftmul@f2+1
  1643  000272  C02E  F012         	movff	_Duty+2,___ftmul@f2+2
  1644  000276  50CB               	movf	203,w,c	;volatile
  1645  000278  ECBC  F00A         	call	___lbtoft
  1646  00027C  C009  F00D         	movff	?___lbtoft,___ftmul@f1
  1647  000280  C00A  F00E         	movff	?___lbtoft+1,___ftmul@f1+1
  1648  000284  C00B  F00F         	movff	?___lbtoft+2,___ftmul@f1+2
  1649  000288  EC8C  F008         	call	___ftmul	;wreg free
  1650  00028C  C00D  F01C         	movff	?___ftmul,___fttol@f1
  1651  000290  C00E  F01D         	movff	?___ftmul+1,___fttol@f1+1
  1652  000294  C00F  F01E         	movff	?___ftmul+2,___fttol@f1+2
  1653  000298  EC06  F009         	call	___fttol	;wreg free
  1654  00029C  501C               	movf	?___fttol^0,w,c
  1655  00029E  6EBB               	movwf	187,c	;volatile
  1656                           
  1657                           ;ProyectoCarro.c: 219: LATD=0b10100001;
  1658  0002A0  0EA1               	movlw	161
  1659  0002A2  6E8C               	movwf	140,c	;volatile
  1660                           
  1661                           ;ProyectoCarro.c: 220: break;
  1662  0002A4  0012               	return	
  1663  0002A6                     i2l1734:
  1664                           
  1665                           ;ProyectoCarro.c: 222: Duty=0.40;
  1666  0002A6  0ECD               	movlw	205
  1667  0002A8  6E2C               	movwf	_Duty^0,c
  1668  0002AA  0ECC               	movlw	204
  1669  0002AC  6E2D               	movwf	(_Duty+1)^0,c
  1670  0002AE  0E3E               	movlw	62
  1671  0002B0  6E2E               	movwf	(_Duty+2)^0,c
  1672                           
  1673                           ;ProyectoCarro.c: 223: CCPR1L=Duty*PR2;
  1674  0002B2  C02C  F010         	movff	_Duty,___ftmul@f2
  1675  0002B6  C02D  F011         	movff	_Duty+1,___ftmul@f2+1
  1676  0002BA  C02E  F012         	movff	_Duty+2,___ftmul@f2+2
  1677  0002BE  50CB               	movf	203,w,c	;volatile
  1678  0002C0  ECBC  F00A         	call	___lbtoft
  1679  0002C4  C009  F00D         	movff	?___lbtoft,___ftmul@f1
  1680  0002C8  C00A  F00E         	movff	?___lbtoft+1,___ftmul@f1+1
  1681  0002CC  C00B  F00F         	movff	?___lbtoft+2,___ftmul@f1+2
  1682  0002D0  EC8C  F008         	call	___ftmul	;wreg free
  1683  0002D4  C00D  F01C         	movff	?___ftmul,___fttol@f1
  1684  0002D8  C00E  F01D         	movff	?___ftmul+1,___fttol@f1+1
  1685  0002DC  C00F  F01E         	movff	?___ftmul+2,___fttol@f1+2
  1686  0002E0  EC06  F009         	call	___fttol	;wreg free
  1687  0002E4  501C               	movf	?___fttol^0,w,c
  1688  0002E6  6EBE               	movwf	190,c	;volatile
  1689                           
  1690                           ;ProyectoCarro.c: 224: CCPR2L=Duty*PR2;
  1691  0002E8  C02C  F010         	movff	_Duty,___ftmul@f2
  1692  0002EC  C02D  F011         	movff	_Duty+1,___ftmul@f2+1
  1693  0002F0  C02E  F012         	movff	_Duty+2,___ftmul@f2+2
  1694  0002F4  50CB               	movf	203,w,c	;volatile
  1695  0002F6  ECBC  F00A         	call	___lbtoft
  1696  0002FA  C009  F00D         	movff	?___lbtoft,___ftmul@f1
  1697  0002FE  C00A  F00E         	movff	?___lbtoft+1,___ftmul@f1+1
  1698  000302  C00B  F00F         	movff	?___lbtoft+2,___ftmul@f1+2
  1699  000306  EC8C  F008         	call	___ftmul	;wreg free
  1700  00030A  C00D  F01C         	movff	?___ftmul,___fttol@f1
  1701  00030E  C00E  F01D         	movff	?___ftmul+1,___fttol@f1+1
  1702  000312  C00F  F01E         	movff	?___ftmul+2,___fttol@f1+2
  1703  000316  EC06  F009         	call	___fttol	;wreg free
  1704  00031A  501C               	movf	?___fttol^0,w,c
  1705  00031C  6EBB               	movwf	187,c	;volatile
  1706                           
  1707                           ;ProyectoCarro.c: 225: LATD=0b01010001;
  1708  00031E  0E51               	movlw	81
  1709  000320  6E8C               	movwf	140,c	;volatile
  1710                           
  1711                           ;ProyectoCarro.c: 226: break;
  1712  000322  0012               	return	
  1713  000324                     i2l1740:
  1714                           
  1715                           ;ProyectoCarro.c: 228: Duty=0.46;
  1716  000324  0E85               	movlw	133
  1717  000326  6E2C               	movwf	_Duty^0,c
  1718  000328  0EEB               	movlw	235
  1719  00032A  6E2D               	movwf	(_Duty+1)^0,c
  1720  00032C  0E3E               	movlw	62
  1721  00032E  6E2E               	movwf	(_Duty+2)^0,c
  1722                           
  1723                           ;ProyectoCarro.c: 229: CCPR1L=Duty*PR2;
  1724  000330  C02C  F010         	movff	_Duty,___ftmul@f2
  1725  000334  C02D  F011         	movff	_Duty+1,___ftmul@f2+1
  1726  000338  C02E  F012         	movff	_Duty+2,___ftmul@f2+2
  1727  00033C  50CB               	movf	203,w,c	;volatile
  1728  00033E  ECBC  F00A         	call	___lbtoft
  1729  000342  C009  F00D         	movff	?___lbtoft,___ftmul@f1
  1730  000346  C00A  F00E         	movff	?___lbtoft+1,___ftmul@f1+1
  1731  00034A  C00B  F00F         	movff	?___lbtoft+2,___ftmul@f1+2
  1732  00034E  EC8C  F008         	call	___ftmul	;wreg free
  1733  000352  C00D  F01C         	movff	?___ftmul,___fttol@f1
  1734  000356  C00E  F01D         	movff	?___ftmul+1,___fttol@f1+1
  1735  00035A  C00F  F01E         	movff	?___ftmul+2,___fttol@f1+2
  1736  00035E  EC06  F009         	call	___fttol	;wreg free
  1737  000362  501C               	movf	?___fttol^0,w,c
  1738  000364  6EBE               	movwf	190,c	;volatile
  1739                           
  1740                           ;ProyectoCarro.c: 230: CCPR2L=Duty*PR2;
  1741  000366  C02C  F010         	movff	_Duty,___ftmul@f2
  1742  00036A  C02D  F011         	movff	_Duty+1,___ftmul@f2+1
  1743  00036E  C02E  F012         	movff	_Duty+2,___ftmul@f2+2
  1744  000372  50CB               	movf	203,w,c	;volatile
  1745  000374  ECBC  F00A         	call	___lbtoft
  1746  000378  C009  F00D         	movff	?___lbtoft,___ftmul@f1
  1747  00037C  C00A  F00E         	movff	?___lbtoft+1,___ftmul@f1+1
  1748  000380  C00B  F00F         	movff	?___lbtoft+2,___ftmul@f1+2
  1749  000384  EC8C  F008         	call	___ftmul	;wreg free
  1750  000388  C00D  F01C         	movff	?___ftmul,___fttol@f1
  1751  00038C  C00E  F01D         	movff	?___ftmul+1,___fttol@f1+1
  1752  000390  C00F  F01E         	movff	?___ftmul+2,___fttol@f1+2
  1753  000394  EC06  F009         	call	___fttol	;wreg free
  1754  000398  501C               	movf	?___fttol^0,w,c
  1755  00039A  6EBB               	movwf	187,c	;volatile
  1756                           
  1757                           ;ProyectoCarro.c: 231: LATD=0b10100001;
  1758  00039C  0EA1               	movlw	161
  1759  00039E  6E8C               	movwf	140,c	;volatile
  1760                           
  1761                           ;ProyectoCarro.c: 232: break;
  1762  0003A0  0012               	return	
  1763  0003A2                     i2l1746:
  1764                           
  1765                           ;ProyectoCarro.c: 234: Duty=0.46;
  1766  0003A2  0E85               	movlw	133
  1767  0003A4  6E2C               	movwf	_Duty^0,c
  1768  0003A6  0EEB               	movlw	235
  1769  0003A8  6E2D               	movwf	(_Duty+1)^0,c
  1770  0003AA  0E3E               	movlw	62
  1771  0003AC  6E2E               	movwf	(_Duty+2)^0,c
  1772                           
  1773                           ;ProyectoCarro.c: 235: CCPR1L=Duty*PR2;
  1774  0003AE  C02C  F010         	movff	_Duty,___ftmul@f2
  1775  0003B2  C02D  F011         	movff	_Duty+1,___ftmul@f2+1
  1776  0003B6  C02E  F012         	movff	_Duty+2,___ftmul@f2+2
  1777  0003BA  50CB               	movf	203,w,c	;volatile
  1778  0003BC  ECBC  F00A         	call	___lbtoft
  1779  0003C0  C009  F00D         	movff	?___lbtoft,___ftmul@f1
  1780  0003C4  C00A  F00E         	movff	?___lbtoft+1,___ftmul@f1+1
  1781  0003C8  C00B  F00F         	movff	?___lbtoft+2,___ftmul@f1+2
  1782  0003CC  EC8C  F008         	call	___ftmul	;wreg free
  1783  0003D0  C00D  F01C         	movff	?___ftmul,___fttol@f1
  1784  0003D4  C00E  F01D         	movff	?___ftmul+1,___fttol@f1+1
  1785  0003D8  C00F  F01E         	movff	?___ftmul+2,___fttol@f1+2
  1786  0003DC  EC06  F009         	call	___fttol	;wreg free
  1787  0003E0  501C               	movf	?___fttol^0,w,c
  1788  0003E2  6EBE               	movwf	190,c	;volatile
  1789                           
  1790                           ;ProyectoCarro.c: 236: CCPR2L=Duty*PR2;
  1791  0003E4  C02C  F010         	movff	_Duty,___ftmul@f2
  1792  0003E8  C02D  F011         	movff	_Duty+1,___ftmul@f2+1
  1793  0003EC  C02E  F012         	movff	_Duty+2,___ftmul@f2+2
  1794  0003F0  50CB               	movf	203,w,c	;volatile
  1795  0003F2  ECBC  F00A         	call	___lbtoft
  1796  0003F6  C009  F00D         	movff	?___lbtoft,___ftmul@f1
  1797  0003FA  C00A  F00E         	movff	?___lbtoft+1,___ftmul@f1+1
  1798  0003FE  C00B  F00F         	movff	?___lbtoft+2,___ftmul@f1+2
  1799  000402  EC8C  F008         	call	___ftmul	;wreg free
  1800  000406  C00D  F01C         	movff	?___ftmul,___fttol@f1
  1801  00040A  C00E  F01D         	movff	?___ftmul+1,___fttol@f1+1
  1802  00040E  C00F  F01E         	movff	?___ftmul+2,___fttol@f1+2
  1803  000412  EC06  F009         	call	___fttol	;wreg free
  1804  000416  501C               	movf	?___fttol^0,w,c
  1805  000418  6EBB               	movwf	187,c	;volatile
  1806                           
  1807                           ;ProyectoCarro.c: 237: LATD=0b01010001;
  1808  00041A  0E51               	movlw	81
  1809  00041C  6E8C               	movwf	140,c	;volatile
  1810                           
  1811                           ;ProyectoCarro.c: 238: break;
  1812  00041E  0012               	return	
  1813  000420                     i2l1752:
  1814                           
  1815                           ;ProyectoCarro.c: 241: Duty=0.52;
  1816  000420  0E1F               	movlw	31
  1817  000422  6E2C               	movwf	_Duty^0,c
  1818  000424  0E05               	movlw	5
  1819  000426  6E2D               	movwf	(_Duty+1)^0,c
  1820  000428  0E3F               	movlw	63
  1821  00042A  6E2E               	movwf	(_Duty+2)^0,c
  1822                           
  1823                           ;ProyectoCarro.c: 242: CCPR1L=Duty*PR2;
  1824  00042C  C02C  F010         	movff	_Duty,___ftmul@f2
  1825  000430  C02D  F011         	movff	_Duty+1,___ftmul@f2+1
  1826  000434  C02E  F012         	movff	_Duty+2,___ftmul@f2+2
  1827  000438  50CB               	movf	203,w,c	;volatile
  1828  00043A  ECBC  F00A         	call	___lbtoft
  1829  00043E  C009  F00D         	movff	?___lbtoft,___ftmul@f1
  1830  000442  C00A  F00E         	movff	?___lbtoft+1,___ftmul@f1+1
  1831  000446  C00B  F00F         	movff	?___lbtoft+2,___ftmul@f1+2
  1832  00044A  EC8C  F008         	call	___ftmul	;wreg free
  1833  00044E  C00D  F01C         	movff	?___ftmul,___fttol@f1
  1834  000452  C00E  F01D         	movff	?___ftmul+1,___fttol@f1+1
  1835  000456  C00F  F01E         	movff	?___ftmul+2,___fttol@f1+2
  1836  00045A  EC06  F009         	call	___fttol	;wreg free
  1837  00045E  501C               	movf	?___fttol^0,w,c
  1838  000460  6EBE               	movwf	190,c	;volatile
  1839                           
  1840                           ;ProyectoCarro.c: 243: CCPR2L=Duty*PR2;
  1841  000462  C02C  F010         	movff	_Duty,___ftmul@f2
  1842  000466  C02D  F011         	movff	_Duty+1,___ftmul@f2+1
  1843  00046A  C02E  F012         	movff	_Duty+2,___ftmul@f2+2
  1844  00046E  50CB               	movf	203,w,c	;volatile
  1845  000470  ECBC  F00A         	call	___lbtoft
  1846  000474  C009  F00D         	movff	?___lbtoft,___ftmul@f1
  1847  000478  C00A  F00E         	movff	?___lbtoft+1,___ftmul@f1+1
  1848  00047C  C00B  F00F         	movff	?___lbtoft+2,___ftmul@f1+2
  1849  000480  EC8C  F008         	call	___ftmul	;wreg free
  1850  000484  C00D  F01C         	movff	?___ftmul,___fttol@f1
  1851  000488  C00E  F01D         	movff	?___ftmul+1,___fttol@f1+1
  1852  00048C  C00F  F01E         	movff	?___ftmul+2,___fttol@f1+2
  1853  000490  EC06  F009         	call	___fttol	;wreg free
  1854  000494  501C               	movf	?___fttol^0,w,c
  1855  000496  6EBB               	movwf	187,c	;volatile
  1856                           
  1857                           ;ProyectoCarro.c: 244: LATD=0b10100001;
  1858  000498  0EA1               	movlw	161
  1859  00049A  6E8C               	movwf	140,c	;volatile
  1860                           
  1861                           ;ProyectoCarro.c: 245: break;
  1862  00049C  0012               	return	
  1863  00049E                     i2l1758:
  1864                           
  1865                           ;ProyectoCarro.c: 247: Duty=0.52;
  1866  00049E  0E1F               	movlw	31
  1867  0004A0  6E2C               	movwf	_Duty^0,c
  1868  0004A2  0E05               	movlw	5
  1869  0004A4  6E2D               	movwf	(_Duty+1)^0,c
  1870  0004A6  0E3F               	movlw	63
  1871  0004A8  6E2E               	movwf	(_Duty+2)^0,c
  1872                           
  1873                           ;ProyectoCarro.c: 248: CCPR1L=Duty*PR2;
  1874  0004AA  C02C  F010         	movff	_Duty,___ftmul@f2
  1875  0004AE  C02D  F011         	movff	_Duty+1,___ftmul@f2+1
  1876  0004B2  C02E  F012         	movff	_Duty+2,___ftmul@f2+2
  1877  0004B6  50CB               	movf	203,w,c	;volatile
  1878  0004B8  ECBC  F00A         	call	___lbtoft
  1879  0004BC  C009  F00D         	movff	?___lbtoft,___ftmul@f1
  1880  0004C0  C00A  F00E         	movff	?___lbtoft+1,___ftmul@f1+1
  1881  0004C4  C00B  F00F         	movff	?___lbtoft+2,___ftmul@f1+2
  1882  0004C8  EC8C  F008         	call	___ftmul	;wreg free
  1883  0004CC  C00D  F01C         	movff	?___ftmul,___fttol@f1
  1884  0004D0  C00E  F01D         	movff	?___ftmul+1,___fttol@f1+1
  1885  0004D4  C00F  F01E         	movff	?___ftmul+2,___fttol@f1+2
  1886  0004D8  EC06  F009         	call	___fttol	;wreg free
  1887  0004DC  501C               	movf	?___fttol^0,w,c
  1888  0004DE  6EBE               	movwf	190,c	;volatile
  1889                           
  1890                           ;ProyectoCarro.c: 249: CCPR2L=Duty*PR2;
  1891  0004E0  C02C  F010         	movff	_Duty,___ftmul@f2
  1892  0004E4  C02D  F011         	movff	_Duty+1,___ftmul@f2+1
  1893  0004E8  C02E  F012         	movff	_Duty+2,___ftmul@f2+2
  1894  0004EC  50CB               	movf	203,w,c	;volatile
  1895  0004EE  ECBC  F00A         	call	___lbtoft
  1896  0004F2  C009  F00D         	movff	?___lbtoft,___ftmul@f1
  1897  0004F6  C00A  F00E         	movff	?___lbtoft+1,___ftmul@f1+1
  1898  0004FA  C00B  F00F         	movff	?___lbtoft+2,___ftmul@f1+2
  1899  0004FE  EC8C  F008         	call	___ftmul	;wreg free
  1900  000502  C00D  F01C         	movff	?___ftmul,___fttol@f1
  1901  000506  C00E  F01D         	movff	?___ftmul+1,___fttol@f1+1
  1902  00050A  C00F  F01E         	movff	?___ftmul+2,___fttol@f1+2
  1903  00050E  EC06  F009         	call	___fttol	;wreg free
  1904  000512  501C               	movf	?___fttol^0,w,c
  1905  000514  6EBB               	movwf	187,c	;volatile
  1906                           
  1907                           ;ProyectoCarro.c: 250: LATD=0b01010001;
  1908  000516  0E51               	movlw	81
  1909  000518  6E8C               	movwf	140,c	;volatile
  1910                           
  1911                           ;ProyectoCarro.c: 251: break;
  1912  00051A  0012               	return	
  1913  00051C                     i2l1764:
  1914                           
  1915                           ;ProyectoCarro.c: 253: Duty=0.58;
  1916  00051C  0E7B               	movlw	123
  1917  00051E  6E2C               	movwf	_Duty^0,c
  1918  000520  0E14               	movlw	20
  1919  000522  6E2D               	movwf	(_Duty+1)^0,c
  1920  000524  0E3F               	movlw	63
  1921  000526  6E2E               	movwf	(_Duty+2)^0,c
  1922                           
  1923                           ;ProyectoCarro.c: 254: CCPR1L=Duty*PR2;
  1924  000528  C02C  F010         	movff	_Duty,___ftmul@f2
  1925  00052C  C02D  F011         	movff	_Duty+1,___ftmul@f2+1
  1926  000530  C02E  F012         	movff	_Duty+2,___ftmul@f2+2
  1927  000534  50CB               	movf	203,w,c	;volatile
  1928  000536  ECBC  F00A         	call	___lbtoft
  1929  00053A  C009  F00D         	movff	?___lbtoft,___ftmul@f1
  1930  00053E  C00A  F00E         	movff	?___lbtoft+1,___ftmul@f1+1
  1931  000542  C00B  F00F         	movff	?___lbtoft+2,___ftmul@f1+2
  1932  000546  EC8C  F008         	call	___ftmul	;wreg free
  1933  00054A  C00D  F01C         	movff	?___ftmul,___fttol@f1
  1934  00054E  C00E  F01D         	movff	?___ftmul+1,___fttol@f1+1
  1935  000552  C00F  F01E         	movff	?___ftmul+2,___fttol@f1+2
  1936  000556  EC06  F009         	call	___fttol	;wreg free
  1937  00055A  501C               	movf	?___fttol^0,w,c
  1938  00055C  6EBE               	movwf	190,c	;volatile
  1939                           
  1940                           ;ProyectoCarro.c: 255: CCPR2L=Duty*PR2;
  1941  00055E  C02C  F010         	movff	_Duty,___ftmul@f2
  1942  000562  C02D  F011         	movff	_Duty+1,___ftmul@f2+1
  1943  000566  C02E  F012         	movff	_Duty+2,___ftmul@f2+2
  1944  00056A  50CB               	movf	203,w,c	;volatile
  1945  00056C  ECBC  F00A         	call	___lbtoft
  1946  000570  C009  F00D         	movff	?___lbtoft,___ftmul@f1
  1947  000574  C00A  F00E         	movff	?___lbtoft+1,___ftmul@f1+1
  1948  000578  C00B  F00F         	movff	?___lbtoft+2,___ftmul@f1+2
  1949  00057C  EC8C  F008         	call	___ftmul	;wreg free
  1950  000580  C00D  F01C         	movff	?___ftmul,___fttol@f1
  1951  000584  C00E  F01D         	movff	?___ftmul+1,___fttol@f1+1
  1952  000588  C00F  F01E         	movff	?___ftmul+2,___fttol@f1+2
  1953  00058C  EC06  F009         	call	___fttol	;wreg free
  1954  000590  501C               	movf	?___fttol^0,w,c
  1955  000592  6EBB               	movwf	187,c	;volatile
  1956                           
  1957                           ;ProyectoCarro.c: 256: LATD=0b10100001;
  1958  000594  0EA1               	movlw	161
  1959  000596  6E8C               	movwf	140,c	;volatile
  1960                           
  1961                           ;ProyectoCarro.c: 257: break;
  1962  000598  0012               	return	
  1963  00059A                     i2l1770:
  1964                           
  1965                           ;ProyectoCarro.c: 259: Duty=0.58;
  1966  00059A  0E7B               	movlw	123
  1967  00059C  6E2C               	movwf	_Duty^0,c
  1968  00059E  0E14               	movlw	20
  1969  0005A0  6E2D               	movwf	(_Duty+1)^0,c
  1970  0005A2  0E3F               	movlw	63
  1971  0005A4  6E2E               	movwf	(_Duty+2)^0,c
  1972                           
  1973                           ;ProyectoCarro.c: 260: CCPR1L=Duty*PR2;
  1974  0005A6  C02C  F010         	movff	_Duty,___ftmul@f2
  1975  0005AA  C02D  F011         	movff	_Duty+1,___ftmul@f2+1
  1976  0005AE  C02E  F012         	movff	_Duty+2,___ftmul@f2+2
  1977  0005B2  50CB               	movf	203,w,c	;volatile
  1978  0005B4  ECBC  F00A         	call	___lbtoft
  1979  0005B8  C009  F00D         	movff	?___lbtoft,___ftmul@f1
  1980  0005BC  C00A  F00E         	movff	?___lbtoft+1,___ftmul@f1+1
  1981  0005C0  C00B  F00F         	movff	?___lbtoft+2,___ftmul@f1+2
  1982  0005C4  EC8C  F008         	call	___ftmul	;wreg free
  1983  0005C8  C00D  F01C         	movff	?___ftmul,___fttol@f1
  1984  0005CC  C00E  F01D         	movff	?___ftmul+1,___fttol@f1+1
  1985  0005D0  C00F  F01E         	movff	?___ftmul+2,___fttol@f1+2
  1986  0005D4  EC06  F009         	call	___fttol	;wreg free
  1987  0005D8  501C               	movf	?___fttol^0,w,c
  1988  0005DA  6EBE               	movwf	190,c	;volatile
  1989                           
  1990                           ;ProyectoCarro.c: 261: CCPR2L=Duty*PR2;
  1991  0005DC  C02C  F010         	movff	_Duty,___ftmul@f2
  1992  0005E0  C02D  F011         	movff	_Duty+1,___ftmul@f2+1
  1993  0005E4  C02E  F012         	movff	_Duty+2,___ftmul@f2+2
  1994  0005E8  50CB               	movf	203,w,c	;volatile
  1995  0005EA  ECBC  F00A         	call	___lbtoft
  1996  0005EE  C009  F00D         	movff	?___lbtoft,___ftmul@f1
  1997  0005F2  C00A  F00E         	movff	?___lbtoft+1,___ftmul@f1+1
  1998  0005F6  C00B  F00F         	movff	?___lbtoft+2,___ftmul@f1+2
  1999  0005FA  EC8C  F008         	call	___ftmul	;wreg free
  2000  0005FE  C00D  F01C         	movff	?___ftmul,___fttol@f1
  2001  000602  C00E  F01D         	movff	?___ftmul+1,___fttol@f1+1
  2002  000606  C00F  F01E         	movff	?___ftmul+2,___fttol@f1+2
  2003  00060A  EC06  F009         	call	___fttol	;wreg free
  2004  00060E  501C               	movf	?___fttol^0,w,c
  2005  000610  6EBB               	movwf	187,c	;volatile
  2006                           
  2007                           ;ProyectoCarro.c: 262: LATD=0b01010001;
  2008  000612  0E51               	movlw	81
  2009  000614  6E8C               	movwf	140,c	;volatile
  2010                           
  2011                           ;ProyectoCarro.c: 263: break;
  2012  000616  0012               	return	
  2013  000618                     i2l1776:
  2014                           
  2015                           ;ProyectoCarro.c: 265: Duty=0.64;
  2016  000618  0ED7               	movlw	215
  2017  00061A  6E2C               	movwf	_Duty^0,c
  2018  00061C  0E23               	movlw	35
  2019  00061E  6E2D               	movwf	(_Duty+1)^0,c
  2020  000620  0E3F               	movlw	63
  2021  000622  6E2E               	movwf	(_Duty+2)^0,c
  2022                           
  2023                           ;ProyectoCarro.c: 266: CCPR1L=Duty*PR2;
  2024  000624  C02C  F010         	movff	_Duty,___ftmul@f2
  2025  000628  C02D  F011         	movff	_Duty+1,___ftmul@f2+1
  2026  00062C  C02E  F012         	movff	_Duty+2,___ftmul@f2+2
  2027  000630  50CB               	movf	203,w,c	;volatile
  2028  000632  ECBC  F00A         	call	___lbtoft
  2029  000636  C009  F00D         	movff	?___lbtoft,___ftmul@f1
  2030  00063A  C00A  F00E         	movff	?___lbtoft+1,___ftmul@f1+1
  2031  00063E  C00B  F00F         	movff	?___lbtoft+2,___ftmul@f1+2
  2032  000642  EC8C  F008         	call	___ftmul	;wreg free
  2033  000646  C00D  F01C         	movff	?___ftmul,___fttol@f1
  2034  00064A  C00E  F01D         	movff	?___ftmul+1,___fttol@f1+1
  2035  00064E  C00F  F01E         	movff	?___ftmul+2,___fttol@f1+2
  2036  000652  EC06  F009         	call	___fttol	;wreg free
  2037  000656  501C               	movf	?___fttol^0,w,c
  2038  000658  6EBE               	movwf	190,c	;volatile
  2039                           
  2040                           ;ProyectoCarro.c: 267: CCPR2L=Duty*PR2;
  2041  00065A  C02C  F010         	movff	_Duty,___ftmul@f2
  2042  00065E  C02D  F011         	movff	_Duty+1,___ftmul@f2+1
  2043  000662  C02E  F012         	movff	_Duty+2,___ftmul@f2+2
  2044  000666  50CB               	movf	203,w,c	;volatile
  2045  000668  ECBC  F00A         	call	___lbtoft
  2046  00066C  C009  F00D         	movff	?___lbtoft,___ftmul@f1
  2047  000670  C00A  F00E         	movff	?___lbtoft+1,___ftmul@f1+1
  2048  000674  C00B  F00F         	movff	?___lbtoft+2,___ftmul@f1+2
  2049  000678  EC8C  F008         	call	___ftmul	;wreg free
  2050  00067C  C00D  F01C         	movff	?___ftmul,___fttol@f1
  2051  000680  C00E  F01D         	movff	?___ftmul+1,___fttol@f1+1
  2052  000684  C00F  F01E         	movff	?___ftmul+2,___fttol@f1+2
  2053  000688  EC06  F009         	call	___fttol	;wreg free
  2054  00068C  501C               	movf	?___fttol^0,w,c
  2055  00068E  6EBB               	movwf	187,c	;volatile
  2056                           
  2057                           ;ProyectoCarro.c: 268: LATD=0b10100001;
  2058  000690  0EA1               	movlw	161
  2059  000692  6E8C               	movwf	140,c	;volatile
  2060                           
  2061                           ;ProyectoCarro.c: 269: break;
  2062  000694  0012               	return	
  2063  000696                     i2l1782:
  2064                           
  2065                           ;ProyectoCarro.c: 271: Duty=0.64;
  2066  000696  0ED7               	movlw	215
  2067  000698  6E2C               	movwf	_Duty^0,c
  2068  00069A  0E23               	movlw	35
  2069  00069C  6E2D               	movwf	(_Duty+1)^0,c
  2070  00069E  0E3F               	movlw	63
  2071  0006A0  6E2E               	movwf	(_Duty+2)^0,c
  2072                           
  2073                           ;ProyectoCarro.c: 272: CCPR1L=Duty*PR2;
  2074  0006A2  C02C  F010         	movff	_Duty,___ftmul@f2
  2075  0006A6  C02D  F011         	movff	_Duty+1,___ftmul@f2+1
  2076  0006AA  C02E  F012         	movff	_Duty+2,___ftmul@f2+2
  2077  0006AE  50CB               	movf	203,w,c	;volatile
  2078  0006B0  ECBC  F00A         	call	___lbtoft
  2079  0006B4  C009  F00D         	movff	?___lbtoft,___ftmul@f1
  2080  0006B8  C00A  F00E         	movff	?___lbtoft+1,___ftmul@f1+1
  2081  0006BC  C00B  F00F         	movff	?___lbtoft+2,___ftmul@f1+2
  2082  0006C0  EC8C  F008         	call	___ftmul	;wreg free
  2083  0006C4  C00D  F01C         	movff	?___ftmul,___fttol@f1
  2084  0006C8  C00E  F01D         	movff	?___ftmul+1,___fttol@f1+1
  2085  0006CC  C00F  F01E         	movff	?___ftmul+2,___fttol@f1+2
  2086  0006D0  EC06  F009         	call	___fttol	;wreg free
  2087  0006D4  501C               	movf	?___fttol^0,w,c
  2088  0006D6  6EBE               	movwf	190,c	;volatile
  2089                           
  2090                           ;ProyectoCarro.c: 273: CCPR2L=Duty*PR2;
  2091  0006D8  C02C  F010         	movff	_Duty,___ftmul@f2
  2092  0006DC  C02D  F011         	movff	_Duty+1,___ftmul@f2+1
  2093  0006E0  C02E  F012         	movff	_Duty+2,___ftmul@f2+2
  2094  0006E4  50CB               	movf	203,w,c	;volatile
  2095  0006E6  ECBC  F00A         	call	___lbtoft
  2096  0006EA  C009  F00D         	movff	?___lbtoft,___ftmul@f1
  2097  0006EE  C00A  F00E         	movff	?___lbtoft+1,___ftmul@f1+1
  2098  0006F2  C00B  F00F         	movff	?___lbtoft+2,___ftmul@f1+2
  2099  0006F6  EC8C  F008         	call	___ftmul	;wreg free
  2100  0006FA  C00D  F01C         	movff	?___ftmul,___fttol@f1
  2101  0006FE  C00E  F01D         	movff	?___ftmul+1,___fttol@f1+1
  2102  000702  C00F  F01E         	movff	?___ftmul+2,___fttol@f1+2
  2103  000706  EC06  F009         	call	___fttol	;wreg free
  2104  00070A  501C               	movf	?___fttol^0,w,c
  2105  00070C  6EBB               	movwf	187,c	;volatile
  2106                           
  2107                           ;ProyectoCarro.c: 274: LATD=0b01010001;
  2108  00070E  0E51               	movlw	81
  2109  000710  6E8C               	movwf	140,c	;volatile
  2110                           
  2111                           ;ProyectoCarro.c: 275: break;
  2112  000712  0012               	return	
  2113  000714                     i2l1788:
  2114                           
  2115                           ;ProyectoCarro.c: 277: Duty=0.70;
  2116  000714  0E33               	movlw	51
  2117  000716  6E2C               	movwf	_Duty^0,c
  2118  000718  0E33               	movlw	51
  2119  00071A  6E2D               	movwf	(_Duty+1)^0,c
  2120  00071C  0E3F               	movlw	63
  2121  00071E  6E2E               	movwf	(_Duty+2)^0,c
  2122                           
  2123                           ;ProyectoCarro.c: 278: CCPR1L=Duty*PR2;
  2124  000720  C02C  F010         	movff	_Duty,___ftmul@f2
  2125  000724  C02D  F011         	movff	_Duty+1,___ftmul@f2+1
  2126  000728  C02E  F012         	movff	_Duty+2,___ftmul@f2+2
  2127  00072C  50CB               	movf	203,w,c	;volatile
  2128  00072E  ECBC  F00A         	call	___lbtoft
  2129  000732  C009  F00D         	movff	?___lbtoft,___ftmul@f1
  2130  000736  C00A  F00E         	movff	?___lbtoft+1,___ftmul@f1+1
  2131  00073A  C00B  F00F         	movff	?___lbtoft+2,___ftmul@f1+2
  2132  00073E  EC8C  F008         	call	___ftmul	;wreg free
  2133  000742  C00D  F01C         	movff	?___ftmul,___fttol@f1
  2134  000746  C00E  F01D         	movff	?___ftmul+1,___fttol@f1+1
  2135  00074A  C00F  F01E         	movff	?___ftmul+2,___fttol@f1+2
  2136  00074E  EC06  F009         	call	___fttol	;wreg free
  2137  000752  501C               	movf	?___fttol^0,w,c
  2138  000754  6EBE               	movwf	190,c	;volatile
  2139                           
  2140                           ;ProyectoCarro.c: 279: CCPR2L=Duty*PR2;
  2141  000756  C02C  F010         	movff	_Duty,___ftmul@f2
  2142  00075A  C02D  F011         	movff	_Duty+1,___ftmul@f2+1
  2143  00075E  C02E  F012         	movff	_Duty+2,___ftmul@f2+2
  2144  000762  50CB               	movf	203,w,c	;volatile
  2145  000764  ECBC  F00A         	call	___lbtoft
  2146  000768  C009  F00D         	movff	?___lbtoft,___ftmul@f1
  2147  00076C  C00A  F00E         	movff	?___lbtoft+1,___ftmul@f1+1
  2148  000770  C00B  F00F         	movff	?___lbtoft+2,___ftmul@f1+2
  2149  000774  EC8C  F008         	call	___ftmul	;wreg free
  2150  000778  C00D  F01C         	movff	?___ftmul,___fttol@f1
  2151  00077C  C00E  F01D         	movff	?___ftmul+1,___fttol@f1+1
  2152  000780  C00F  F01E         	movff	?___ftmul+2,___fttol@f1+2
  2153  000784  EC06  F009         	call	___fttol	;wreg free
  2154  000788  501C               	movf	?___fttol^0,w,c
  2155  00078A  6EBB               	movwf	187,c	;volatile
  2156                           
  2157                           ;ProyectoCarro.c: 280: LATD=0b10100001;
  2158  00078C  0EA1               	movlw	161
  2159  00078E  6E8C               	movwf	140,c	;volatile
  2160                           
  2161                           ;ProyectoCarro.c: 281: break;
  2162  000790  0012               	return	
  2163  000792                     i2l1794:
  2164                           
  2165                           ;ProyectoCarro.c: 283: Duty=0.70;
  2166  000792  0E33               	movlw	51
  2167  000794  6E2C               	movwf	_Duty^0,c
  2168  000796  0E33               	movlw	51
  2169  000798  6E2D               	movwf	(_Duty+1)^0,c
  2170  00079A  0E3F               	movlw	63
  2171  00079C  6E2E               	movwf	(_Duty+2)^0,c
  2172                           
  2173                           ;ProyectoCarro.c: 284: CCPR1L=Duty*PR2;
  2174  00079E  C02C  F010         	movff	_Duty,___ftmul@f2
  2175  0007A2  C02D  F011         	movff	_Duty+1,___ftmul@f2+1
  2176  0007A6  C02E  F012         	movff	_Duty+2,___ftmul@f2+2
  2177  0007AA  50CB               	movf	203,w,c	;volatile
  2178  0007AC  ECBC  F00A         	call	___lbtoft
  2179  0007B0  C009  F00D         	movff	?___lbtoft,___ftmul@f1
  2180  0007B4  C00A  F00E         	movff	?___lbtoft+1,___ftmul@f1+1
  2181  0007B8  C00B  F00F         	movff	?___lbtoft+2,___ftmul@f1+2
  2182  0007BC  EC8C  F008         	call	___ftmul	;wreg free
  2183  0007C0  C00D  F01C         	movff	?___ftmul,___fttol@f1
  2184  0007C4  C00E  F01D         	movff	?___ftmul+1,___fttol@f1+1
  2185  0007C8  C00F  F01E         	movff	?___ftmul+2,___fttol@f1+2
  2186  0007CC  EC06  F009         	call	___fttol	;wreg free
  2187  0007D0  501C               	movf	?___fttol^0,w,c
  2188  0007D2  6EBE               	movwf	190,c	;volatile
  2189                           
  2190                           ;ProyectoCarro.c: 285: CCPR2L=Duty*PR2;
  2191  0007D4  C02C  F010         	movff	_Duty,___ftmul@f2
  2192  0007D8  C02D  F011         	movff	_Duty+1,___ftmul@f2+1
  2193  0007DC  C02E  F012         	movff	_Duty+2,___ftmul@f2+2
  2194  0007E0  50CB               	movf	203,w,c	;volatile
  2195  0007E2  ECBC  F00A         	call	___lbtoft
  2196  0007E6  C009  F00D         	movff	?___lbtoft,___ftmul@f1
  2197  0007EA  C00A  F00E         	movff	?___lbtoft+1,___ftmul@f1+1
  2198  0007EE  C00B  F00F         	movff	?___lbtoft+2,___ftmul@f1+2
  2199  0007F2  EC8C  F008         	call	___ftmul	;wreg free
  2200  0007F6  C00D  F01C         	movff	?___ftmul,___fttol@f1
  2201  0007FA  C00E  F01D         	movff	?___ftmul+1,___fttol@f1+1
  2202  0007FE  C00F  F01E         	movff	?___ftmul+2,___fttol@f1+2
  2203  000802  EC06  F009         	call	___fttol	;wreg free
  2204  000806  501C               	movf	?___fttol^0,w,c
  2205  000808  6EBB               	movwf	187,c	;volatile
  2206                           
  2207                           ;ProyectoCarro.c: 286: LATD=0b01010001;
  2208  00080A  0E51               	movlw	81
  2209  00080C  6E8C               	movwf	140,c	;volatile
  2210                           
  2211                           ;ProyectoCarro.c: 287: break;
  2212  00080E  0012               	return	
  2213  000810                     i2l1800:
  2214                           
  2215                           ;ProyectoCarro.c: 289: Duty=0.76;
  2216  000810  0E8F               	movlw	143
  2217  000812  6E2C               	movwf	_Duty^0,c
  2218  000814  0E42               	movlw	66
  2219  000816  6E2D               	movwf	(_Duty+1)^0,c
  2220  000818  0E3F               	movlw	63
  2221  00081A  6E2E               	movwf	(_Duty+2)^0,c
  2222                           
  2223                           ;ProyectoCarro.c: 290: CCPR1L=Duty*PR2;
  2224  00081C  C02C  F010         	movff	_Duty,___ftmul@f2
  2225  000820  C02D  F011         	movff	_Duty+1,___ftmul@f2+1
  2226  000824  C02E  F012         	movff	_Duty+2,___ftmul@f2+2
  2227  000828  50CB               	movf	203,w,c	;volatile
  2228  00082A  ECBC  F00A         	call	___lbtoft
  2229  00082E  C009  F00D         	movff	?___lbtoft,___ftmul@f1
  2230  000832  C00A  F00E         	movff	?___lbtoft+1,___ftmul@f1+1
  2231  000836  C00B  F00F         	movff	?___lbtoft+2,___ftmul@f1+2
  2232  00083A  EC8C  F008         	call	___ftmul	;wreg free
  2233  00083E  C00D  F01C         	movff	?___ftmul,___fttol@f1
  2234  000842  C00E  F01D         	movff	?___ftmul+1,___fttol@f1+1
  2235  000846  C00F  F01E         	movff	?___ftmul+2,___fttol@f1+2
  2236  00084A  EC06  F009         	call	___fttol	;wreg free
  2237  00084E  501C               	movf	?___fttol^0,w,c
  2238  000850  6EBE               	movwf	190,c	;volatile
  2239                           
  2240                           ;ProyectoCarro.c: 291: CCPR2L=Duty*PR2;
  2241  000852  C02C  F010         	movff	_Duty,___ftmul@f2
  2242  000856  C02D  F011         	movff	_Duty+1,___ftmul@f2+1
  2243  00085A  C02E  F012         	movff	_Duty+2,___ftmul@f2+2
  2244  00085E  50CB               	movf	203,w,c	;volatile
  2245  000860  ECBC  F00A         	call	___lbtoft
  2246  000864  C009  F00D         	movff	?___lbtoft,___ftmul@f1
  2247  000868  C00A  F00E         	movff	?___lbtoft+1,___ftmul@f1+1
  2248  00086C  C00B  F00F         	movff	?___lbtoft+2,___ftmul@f1+2
  2249  000870  EC8C  F008         	call	___ftmul	;wreg free
  2250  000874  C00D  F01C         	movff	?___ftmul,___fttol@f1
  2251  000878  C00E  F01D         	movff	?___ftmul+1,___fttol@f1+1
  2252  00087C  C00F  F01E         	movff	?___ftmul+2,___fttol@f1+2
  2253  000880  EC06  F009         	call	___fttol	;wreg free
  2254  000884  501C               	movf	?___fttol^0,w,c
  2255  000886  6EBB               	movwf	187,c	;volatile
  2256                           
  2257                           ;ProyectoCarro.c: 292: LATD=0b10100001;
  2258  000888  0EA1               	movlw	161
  2259  00088A  6E8C               	movwf	140,c	;volatile
  2260                           
  2261                           ;ProyectoCarro.c: 293: break;
  2262  00088C  0012               	return	
  2263  00088E                     i2l1806:
  2264                           
  2265                           ;ProyectoCarro.c: 295: Duty=0.76;
  2266  00088E  0E8F               	movlw	143
  2267  000890  6E2C               	movwf	_Duty^0,c
  2268  000892  0E42               	movlw	66
  2269  000894  6E2D               	movwf	(_Duty+1)^0,c
  2270  000896  0E3F               	movlw	63
  2271  000898  6E2E               	movwf	(_Duty+2)^0,c
  2272                           
  2273                           ;ProyectoCarro.c: 296: CCPR1L=Duty*PR2;
  2274  00089A  C02C  F010         	movff	_Duty,___ftmul@f2
  2275  00089E  C02D  F011         	movff	_Duty+1,___ftmul@f2+1
  2276  0008A2  C02E  F012         	movff	_Duty+2,___ftmul@f2+2
  2277  0008A6  50CB               	movf	203,w,c	;volatile
  2278  0008A8  ECBC  F00A         	call	___lbtoft
  2279  0008AC  C009  F00D         	movff	?___lbtoft,___ftmul@f1
  2280  0008B0  C00A  F00E         	movff	?___lbtoft+1,___ftmul@f1+1
  2281  0008B4  C00B  F00F         	movff	?___lbtoft+2,___ftmul@f1+2
  2282  0008B8  EC8C  F008         	call	___ftmul	;wreg free
  2283  0008BC  C00D  F01C         	movff	?___ftmul,___fttol@f1
  2284  0008C0  C00E  F01D         	movff	?___ftmul+1,___fttol@f1+1
  2285  0008C4  C00F  F01E         	movff	?___ftmul+2,___fttol@f1+2
  2286  0008C8  EC06  F009         	call	___fttol	;wreg free
  2287  0008CC  501C               	movf	?___fttol^0,w,c
  2288  0008CE  6EBE               	movwf	190,c	;volatile
  2289                           
  2290                           ;ProyectoCarro.c: 297: CCPR2L=Duty*PR2;
  2291  0008D0  C02C  F010         	movff	_Duty,___ftmul@f2
  2292  0008D4  C02D  F011         	movff	_Duty+1,___ftmul@f2+1
  2293  0008D8  C02E  F012         	movff	_Duty+2,___ftmul@f2+2
  2294  0008DC  50CB               	movf	203,w,c	;volatile
  2295  0008DE  ECBC  F00A         	call	___lbtoft
  2296  0008E2  C009  F00D         	movff	?___lbtoft,___ftmul@f1
  2297  0008E6  C00A  F00E         	movff	?___lbtoft+1,___ftmul@f1+1
  2298  0008EA  C00B  F00F         	movff	?___lbtoft+2,___ftmul@f1+2
  2299  0008EE  EC8C  F008         	call	___ftmul	;wreg free
  2300  0008F2  C00D  F01C         	movff	?___ftmul,___fttol@f1
  2301  0008F6  C00E  F01D         	movff	?___ftmul+1,___fttol@f1+1
  2302  0008FA  C00F  F01E         	movff	?___ftmul+2,___fttol@f1+2
  2303  0008FE  EC06  F009         	call	___fttol	;wreg free
  2304  000902  501C               	movf	?___fttol^0,w,c
  2305  000904  6EBB               	movwf	187,c	;volatile
  2306                           
  2307                           ;ProyectoCarro.c: 298: LATD=0b01010001;
  2308  000906  0E51               	movlw	81
  2309  000908  6E8C               	movwf	140,c	;volatile
  2310                           
  2311                           ;ProyectoCarro.c: 299: break;
  2312  00090A  0012               	return	
  2313  00090C                     i2l1812:
  2314                           
  2315                           ;ProyectoCarro.c: 301: Duty=0.82;
  2316  00090C  0EEC               	movlw	236
  2317  00090E  6E2C               	movwf	_Duty^0,c
  2318  000910  0E51               	movlw	81
  2319  000912  6E2D               	movwf	(_Duty+1)^0,c
  2320  000914  0E3F               	movlw	63
  2321  000916  6E2E               	movwf	(_Duty+2)^0,c
  2322                           
  2323                           ;ProyectoCarro.c: 302: CCPR1L=Duty*PR2;
  2324  000918  C02C  F010         	movff	_Duty,___ftmul@f2
  2325  00091C  C02D  F011         	movff	_Duty+1,___ftmul@f2+1
  2326  000920  C02E  F012         	movff	_Duty+2,___ftmul@f2+2
  2327  000924  50CB               	movf	203,w,c	;volatile
  2328  000926  ECBC  F00A         	call	___lbtoft
  2329  00092A  C009  F00D         	movff	?___lbtoft,___ftmul@f1
  2330  00092E  C00A  F00E         	movff	?___lbtoft+1,___ftmul@f1+1
  2331  000932  C00B  F00F         	movff	?___lbtoft+2,___ftmul@f1+2
  2332  000936  EC8C  F008         	call	___ftmul	;wreg free
  2333  00093A  C00D  F01C         	movff	?___ftmul,___fttol@f1
  2334  00093E  C00E  F01D         	movff	?___ftmul+1,___fttol@f1+1
  2335  000942  C00F  F01E         	movff	?___ftmul+2,___fttol@f1+2
  2336  000946  EC06  F009         	call	___fttol	;wreg free
  2337  00094A  501C               	movf	?___fttol^0,w,c
  2338  00094C  6EBE               	movwf	190,c	;volatile
  2339                           
  2340                           ;ProyectoCarro.c: 303: CCPR2L=Duty*PR2;
  2341  00094E  C02C  F010         	movff	_Duty,___ftmul@f2
  2342  000952  C02D  F011         	movff	_Duty+1,___ftmul@f2+1
  2343  000956  C02E  F012         	movff	_Duty+2,___ftmul@f2+2
  2344  00095A  50CB               	movf	203,w,c	;volatile
  2345  00095C  ECBC  F00A         	call	___lbtoft
  2346  000960  C009  F00D         	movff	?___lbtoft,___ftmul@f1
  2347  000964  C00A  F00E         	movff	?___lbtoft+1,___ftmul@f1+1
  2348  000968  C00B  F00F         	movff	?___lbtoft+2,___ftmul@f1+2
  2349  00096C  EC8C  F008         	call	___ftmul	;wreg free
  2350  000970  C00D  F01C         	movff	?___ftmul,___fttol@f1
  2351  000974  C00E  F01D         	movff	?___ftmul+1,___fttol@f1+1
  2352  000978  C00F  F01E         	movff	?___ftmul+2,___fttol@f1+2
  2353  00097C  EC06  F009         	call	___fttol	;wreg free
  2354  000980  501C               	movf	?___fttol^0,w,c
  2355  000982  6EBB               	movwf	187,c	;volatile
  2356                           
  2357                           ;ProyectoCarro.c: 304: LATD=0b10100001;
  2358  000984  0EA1               	movlw	161
  2359  000986  6E8C               	movwf	140,c	;volatile
  2360                           
  2361                           ;ProyectoCarro.c: 305: break;
  2362  000988  0012               	return	
  2363  00098A                     i2l1818:
  2364                           
  2365                           ;ProyectoCarro.c: 307: Duty=0.82;
  2366  00098A  0EEC               	movlw	236
  2367  00098C  6E2C               	movwf	_Duty^0,c
  2368  00098E  0E51               	movlw	81
  2369  000990  6E2D               	movwf	(_Duty+1)^0,c
  2370  000992  0E3F               	movlw	63
  2371  000994  6E2E               	movwf	(_Duty+2)^0,c
  2372                           
  2373                           ;ProyectoCarro.c: 308: CCPR1L=Duty*PR2;
  2374  000996  C02C  F010         	movff	_Duty,___ftmul@f2
  2375  00099A  C02D  F011         	movff	_Duty+1,___ftmul@f2+1
  2376  00099E  C02E  F012         	movff	_Duty+2,___ftmul@f2+2
  2377  0009A2  50CB               	movf	203,w,c	;volatile
  2378  0009A4  ECBC  F00A         	call	___lbtoft
  2379  0009A8  C009  F00D         	movff	?___lbtoft,___ftmul@f1
  2380  0009AC  C00A  F00E         	movff	?___lbtoft+1,___ftmul@f1+1
  2381  0009B0  C00B  F00F         	movff	?___lbtoft+2,___ftmul@f1+2
  2382  0009B4  EC8C  F008         	call	___ftmul	;wreg free
  2383  0009B8  C00D  F01C         	movff	?___ftmul,___fttol@f1
  2384  0009BC  C00E  F01D         	movff	?___ftmul+1,___fttol@f1+1
  2385  0009C0  C00F  F01E         	movff	?___ftmul+2,___fttol@f1+2
  2386  0009C4  EC06  F009         	call	___fttol	;wreg free
  2387  0009C8  501C               	movf	?___fttol^0,w,c
  2388  0009CA  6EBE               	movwf	190,c	;volatile
  2389                           
  2390                           ;ProyectoCarro.c: 309: CCPR2L=Duty*PR2;
  2391  0009CC  C02C  F010         	movff	_Duty,___ftmul@f2
  2392  0009D0  C02D  F011         	movff	_Duty+1,___ftmul@f2+1
  2393  0009D4  C02E  F012         	movff	_Duty+2,___ftmul@f2+2
  2394  0009D8  50CB               	movf	203,w,c	;volatile
  2395  0009DA  ECBC  F00A         	call	___lbtoft
  2396  0009DE  C009  F00D         	movff	?___lbtoft,___ftmul@f1
  2397  0009E2  C00A  F00E         	movff	?___lbtoft+1,___ftmul@f1+1
  2398  0009E6  C00B  F00F         	movff	?___lbtoft+2,___ftmul@f1+2
  2399  0009EA  EC8C  F008         	call	___ftmul	;wreg free
  2400  0009EE  C00D  F01C         	movff	?___ftmul,___fttol@f1
  2401  0009F2  C00E  F01D         	movff	?___ftmul+1,___fttol@f1+1
  2402  0009F6  C00F  F01E         	movff	?___ftmul+2,___fttol@f1+2
  2403  0009FA  EC06  F009         	call	___fttol	;wreg free
  2404  0009FE  501C               	movf	?___fttol^0,w,c
  2405  000A00  6EBB               	movwf	187,c	;volatile
  2406                           
  2407                           ;ProyectoCarro.c: 310: LATD=0b01010001;
  2408  000A02  0E51               	movlw	81
  2409  000A04  6E8C               	movwf	140,c	;volatile
  2410                           
  2411                           ;ProyectoCarro.c: 311: break;
  2412  000A06  0012               	return	
  2413  000A08                     i2l1824:
  2414                           
  2415                           ;ProyectoCarro.c: 313: Duty=0.88;
  2416  000A08  0E48               	movlw	72
  2417  000A0A  6E2C               	movwf	_Duty^0,c
  2418  000A0C  0E61               	movlw	97
  2419  000A0E  6E2D               	movwf	(_Duty+1)^0,c
  2420  000A10  0E3F               	movlw	63
  2421  000A12  6E2E               	movwf	(_Duty+2)^0,c
  2422                           
  2423                           ;ProyectoCarro.c: 314: CCPR1L=Duty*PR2;
  2424  000A14  C02C  F010         	movff	_Duty,___ftmul@f2
  2425  000A18  C02D  F011         	movff	_Duty+1,___ftmul@f2+1
  2426  000A1C  C02E  F012         	movff	_Duty+2,___ftmul@f2+2
  2427  000A20  50CB               	movf	203,w,c	;volatile
  2428  000A22  ECBC  F00A         	call	___lbtoft
  2429  000A26  C009  F00D         	movff	?___lbtoft,___ftmul@f1
  2430  000A2A  C00A  F00E         	movff	?___lbtoft+1,___ftmul@f1+1
  2431  000A2E  C00B  F00F         	movff	?___lbtoft+2,___ftmul@f1+2
  2432  000A32  EC8C  F008         	call	___ftmul	;wreg free
  2433  000A36  C00D  F01C         	movff	?___ftmul,___fttol@f1
  2434  000A3A  C00E  F01D         	movff	?___ftmul+1,___fttol@f1+1
  2435  000A3E  C00F  F01E         	movff	?___ftmul+2,___fttol@f1+2
  2436  000A42  EC06  F009         	call	___fttol	;wreg free
  2437  000A46  501C               	movf	?___fttol^0,w,c
  2438  000A48  6EBE               	movwf	190,c	;volatile
  2439                           
  2440                           ;ProyectoCarro.c: 315: CCPR2L=Duty*PR2;
  2441  000A4A  C02C  F010         	movff	_Duty,___ftmul@f2
  2442  000A4E  C02D  F011         	movff	_Duty+1,___ftmul@f2+1
  2443  000A52  C02E  F012         	movff	_Duty+2,___ftmul@f2+2
  2444  000A56  50CB               	movf	203,w,c	;volatile
  2445  000A58  ECBC  F00A         	call	___lbtoft
  2446  000A5C  C009  F00D         	movff	?___lbtoft,___ftmul@f1
  2447  000A60  C00A  F00E         	movff	?___lbtoft+1,___ftmul@f1+1
  2448  000A64  C00B  F00F         	movff	?___lbtoft+2,___ftmul@f1+2
  2449  000A68  EC8C  F008         	call	___ftmul	;wreg free
  2450  000A6C  C00D  F01C         	movff	?___ftmul,___fttol@f1
  2451  000A70  C00E  F01D         	movff	?___ftmul+1,___fttol@f1+1
  2452  000A74  C00F  F01E         	movff	?___ftmul+2,___fttol@f1+2
  2453  000A78  EC06  F009         	call	___fttol	;wreg free
  2454  000A7C  501C               	movf	?___fttol^0,w,c
  2455  000A7E  6EBB               	movwf	187,c	;volatile
  2456                           
  2457                           ;ProyectoCarro.c: 316: LATD=0b10100001;
  2458  000A80  0EA1               	movlw	161
  2459  000A82  6E8C               	movwf	140,c	;volatile
  2460                           
  2461                           ;ProyectoCarro.c: 317: break;
  2462  000A84  0012               	return	
  2463  000A86                     i2l1830:
  2464                           
  2465                           ;ProyectoCarro.c: 319: Duty=0.88;
  2466  000A86  0E48               	movlw	72
  2467  000A88  6E2C               	movwf	_Duty^0,c
  2468  000A8A  0E61               	movlw	97
  2469  000A8C  6E2D               	movwf	(_Duty+1)^0,c
  2470  000A8E  0E3F               	movlw	63
  2471  000A90  6E2E               	movwf	(_Duty+2)^0,c
  2472                           
  2473                           ;ProyectoCarro.c: 320: CCPR1L=Duty*PR2;
  2474  000A92  C02C  F010         	movff	_Duty,___ftmul@f2
  2475  000A96  C02D  F011         	movff	_Duty+1,___ftmul@f2+1
  2476  000A9A  C02E  F012         	movff	_Duty+2,___ftmul@f2+2
  2477  000A9E  50CB               	movf	203,w,c	;volatile
  2478  000AA0  ECBC  F00A         	call	___lbtoft
  2479  000AA4  C009  F00D         	movff	?___lbtoft,___ftmul@f1
  2480  000AA8  C00A  F00E         	movff	?___lbtoft+1,___ftmul@f1+1
  2481  000AAC  C00B  F00F         	movff	?___lbtoft+2,___ftmul@f1+2
  2482  000AB0  EC8C  F008         	call	___ftmul	;wreg free
  2483  000AB4  C00D  F01C         	movff	?___ftmul,___fttol@f1
  2484  000AB8  C00E  F01D         	movff	?___ftmul+1,___fttol@f1+1
  2485  000ABC  C00F  F01E         	movff	?___ftmul+2,___fttol@f1+2
  2486  000AC0  EC06  F009         	call	___fttol	;wreg free
  2487  000AC4  501C               	movf	?___fttol^0,w,c
  2488  000AC6  6EBE               	movwf	190,c	;volatile
  2489                           
  2490                           ;ProyectoCarro.c: 321: CCPR2L=Duty*PR2;
  2491  000AC8  C02C  F010         	movff	_Duty,___ftmul@f2
  2492  000ACC  C02D  F011         	movff	_Duty+1,___ftmul@f2+1
  2493  000AD0  C02E  F012         	movff	_Duty+2,___ftmul@f2+2
  2494  000AD4  50CB               	movf	203,w,c	;volatile
  2495  000AD6  ECBC  F00A         	call	___lbtoft
  2496  000ADA  C009  F00D         	movff	?___lbtoft,___ftmul@f1
  2497  000ADE  C00A  F00E         	movff	?___lbtoft+1,___ftmul@f1+1
  2498  000AE2  C00B  F00F         	movff	?___lbtoft+2,___ftmul@f1+2
  2499  000AE6  EC8C  F008         	call	___ftmul	;wreg free
  2500  000AEA  C00D  F01C         	movff	?___ftmul,___fttol@f1
  2501  000AEE  C00E  F01D         	movff	?___ftmul+1,___fttol@f1+1
  2502  000AF2  C00F  F01E         	movff	?___ftmul+2,___fttol@f1+2
  2503  000AF6  EC06  F009         	call	___fttol	;wreg free
  2504  000AFA  501C               	movf	?___fttol^0,w,c
  2505  000AFC  6EBB               	movwf	187,c	;volatile
  2506                           
  2507                           ;ProyectoCarro.c: 322: LATD=0b01010001;
  2508  000AFE  0E51               	movlw	81
  2509  000B00  6E8C               	movwf	140,c	;volatile
  2510                           
  2511                           ;ProyectoCarro.c: 323: break;
  2512  000B02  0012               	return	
  2513  000B04                     i2l1836:
  2514                           
  2515                           ;ProyectoCarro.c: 325: Duty=0.94;
  2516  000B04  0EA4               	movlw	164
  2517  000B06  6E2C               	movwf	_Duty^0,c
  2518  000B08  0E70               	movlw	112
  2519  000B0A  6E2D               	movwf	(_Duty+1)^0,c
  2520  000B0C  0E3F               	movlw	63
  2521  000B0E  6E2E               	movwf	(_Duty+2)^0,c
  2522                           
  2523                           ;ProyectoCarro.c: 326: CCPR1L=Duty*PR2;
  2524  000B10  C02C  F010         	movff	_Duty,___ftmul@f2
  2525  000B14  C02D  F011         	movff	_Duty+1,___ftmul@f2+1
  2526  000B18  C02E  F012         	movff	_Duty+2,___ftmul@f2+2
  2527  000B1C  50CB               	movf	203,w,c	;volatile
  2528  000B1E  ECBC  F00A         	call	___lbtoft
  2529  000B22  C009  F00D         	movff	?___lbtoft,___ftmul@f1
  2530  000B26  C00A  F00E         	movff	?___lbtoft+1,___ftmul@f1+1
  2531  000B2A  C00B  F00F         	movff	?___lbtoft+2,___ftmul@f1+2
  2532  000B2E  EC8C  F008         	call	___ftmul	;wreg free
  2533  000B32  C00D  F01C         	movff	?___ftmul,___fttol@f1
  2534  000B36  C00E  F01D         	movff	?___ftmul+1,___fttol@f1+1
  2535  000B3A  C00F  F01E         	movff	?___ftmul+2,___fttol@f1+2
  2536  000B3E  EC06  F009         	call	___fttol	;wreg free
  2537  000B42  501C               	movf	?___fttol^0,w,c
  2538  000B44  6EBE               	movwf	190,c	;volatile
  2539                           
  2540                           ;ProyectoCarro.c: 327: CCPR2L=Duty*PR2;
  2541  000B46  C02C  F010         	movff	_Duty,___ftmul@f2
  2542  000B4A  C02D  F011         	movff	_Duty+1,___ftmul@f2+1
  2543  000B4E  C02E  F012         	movff	_Duty+2,___ftmul@f2+2
  2544  000B52  50CB               	movf	203,w,c	;volatile
  2545  000B54  ECBC  F00A         	call	___lbtoft
  2546  000B58  C009  F00D         	movff	?___lbtoft,___ftmul@f1
  2547  000B5C  C00A  F00E         	movff	?___lbtoft+1,___ftmul@f1+1
  2548  000B60  C00B  F00F         	movff	?___lbtoft+2,___ftmul@f1+2
  2549  000B64  EC8C  F008         	call	___ftmul	;wreg free
  2550  000B68  C00D  F01C         	movff	?___ftmul,___fttol@f1
  2551  000B6C  C00E  F01D         	movff	?___ftmul+1,___fttol@f1+1
  2552  000B70  C00F  F01E         	movff	?___ftmul+2,___fttol@f1+2
  2553  000B74  EC06  F009         	call	___fttol	;wreg free
  2554  000B78  501C               	movf	?___fttol^0,w,c
  2555  000B7A  6EBB               	movwf	187,c	;volatile
  2556                           
  2557                           ;ProyectoCarro.c: 328: LATD=0b10100001;
  2558  000B7C  0EA1               	movlw	161
  2559  000B7E  6E8C               	movwf	140,c	;volatile
  2560                           
  2561                           ;ProyectoCarro.c: 329: break;
  2562  000B80  0012               	return	
  2563  000B82                     i2l1842:
  2564                           
  2565                           ;ProyectoCarro.c: 332: Duty=0.94;
  2566  000B82  0EA4               	movlw	164
  2567  000B84  6E2C               	movwf	_Duty^0,c
  2568  000B86  0E70               	movlw	112
  2569  000B88  6E2D               	movwf	(_Duty+1)^0,c
  2570  000B8A  0E3F               	movlw	63
  2571  000B8C  6E2E               	movwf	(_Duty+2)^0,c
  2572                           
  2573                           ;ProyectoCarro.c: 333: CCPR1L=Duty*PR2;
  2574  000B8E  C02C  F010         	movff	_Duty,___ftmul@f2
  2575  000B92  C02D  F011         	movff	_Duty+1,___ftmul@f2+1
  2576  000B96  C02E  F012         	movff	_Duty+2,___ftmul@f2+2
  2577  000B9A  50CB               	movf	203,w,c	;volatile
  2578  000B9C  ECBC  F00A         	call	___lbtoft
  2579  000BA0  C009  F00D         	movff	?___lbtoft,___ftmul@f1
  2580  000BA4  C00A  F00E         	movff	?___lbtoft+1,___ftmul@f1+1
  2581  000BA8  C00B  F00F         	movff	?___lbtoft+2,___ftmul@f1+2
  2582  000BAC  EC8C  F008         	call	___ftmul	;wreg free
  2583  000BB0  C00D  F01C         	movff	?___ftmul,___fttol@f1
  2584  000BB4  C00E  F01D         	movff	?___ftmul+1,___fttol@f1+1
  2585  000BB8  C00F  F01E         	movff	?___ftmul+2,___fttol@f1+2
  2586  000BBC  EC06  F009         	call	___fttol	;wreg free
  2587  000BC0  501C               	movf	?___fttol^0,w,c
  2588  000BC2  6EBE               	movwf	190,c	;volatile
  2589                           
  2590                           ;ProyectoCarro.c: 334: CCPR2L=Duty*PR2;
  2591  000BC4  C02C  F010         	movff	_Duty,___ftmul@f2
  2592  000BC8  C02D  F011         	movff	_Duty+1,___ftmul@f2+1
  2593  000BCC  C02E  F012         	movff	_Duty+2,___ftmul@f2+2
  2594  000BD0  50CB               	movf	203,w,c	;volatile
  2595  000BD2  ECBC  F00A         	call	___lbtoft
  2596  000BD6  C009  F00D         	movff	?___lbtoft,___ftmul@f1
  2597  000BDA  C00A  F00E         	movff	?___lbtoft+1,___ftmul@f1+1
  2598  000BDE  C00B  F00F         	movff	?___lbtoft+2,___ftmul@f1+2
  2599  000BE2  EC8C  F008         	call	___ftmul	;wreg free
  2600  000BE6  C00D  F01C         	movff	?___ftmul,___fttol@f1
  2601  000BEA  C00E  F01D         	movff	?___ftmul+1,___fttol@f1+1
  2602  000BEE  C00F  F01E         	movff	?___ftmul+2,___fttol@f1+2
  2603  000BF2  EC06  F009         	call	___fttol	;wreg free
  2604  000BF6  501C               	movf	?___fttol^0,w,c
  2605  000BF8  6EBB               	movwf	187,c	;volatile
  2606                           
  2607                           ;ProyectoCarro.c: 335: LATD=0b01010001;
  2608  000BFA  0E51               	movlw	81
  2609  000BFC  6E8C               	movwf	140,c	;volatile
  2610                           
  2611                           ;ProyectoCarro.c: 336: break;
  2612  000BFE  0012               	return	
  2613  000C00                     i2l1848:
  2614                           
  2615                           ;ProyectoCarro.c: 339: Duty=1;
  2616  000C00  0E00               	movlw	0
  2617  000C02  6E2C               	movwf	_Duty^0,c
  2618  000C04  0E80               	movlw	128
  2619  000C06  6E2D               	movwf	(_Duty+1)^0,c
  2620  000C08  0E3F               	movlw	63
  2621  000C0A  6E2E               	movwf	(_Duty+2)^0,c
  2622                           
  2623                           ;ProyectoCarro.c: 340: CCPR1L=Duty*PR2;
  2624  000C0C  C02C  F010         	movff	_Duty,___ftmul@f2
  2625  000C10  C02D  F011         	movff	_Duty+1,___ftmul@f2+1
  2626  000C14  C02E  F012         	movff	_Duty+2,___ftmul@f2+2
  2627  000C18  50CB               	movf	203,w,c	;volatile
  2628  000C1A  ECBC  F00A         	call	___lbtoft
  2629  000C1E  C009  F00D         	movff	?___lbtoft,___ftmul@f1
  2630  000C22  C00A  F00E         	movff	?___lbtoft+1,___ftmul@f1+1
  2631  000C26  C00B  F00F         	movff	?___lbtoft+2,___ftmul@f1+2
  2632  000C2A  EC8C  F008         	call	___ftmul	;wreg free
  2633  000C2E  C00D  F01C         	movff	?___ftmul,___fttol@f1
  2634  000C32  C00E  F01D         	movff	?___ftmul+1,___fttol@f1+1
  2635  000C36  C00F  F01E         	movff	?___ftmul+2,___fttol@f1+2
  2636  000C3A  EC06  F009         	call	___fttol	;wreg free
  2637  000C3E  501C               	movf	?___fttol^0,w,c
  2638  000C40  6EBE               	movwf	190,c	;volatile
  2639                           
  2640                           ;ProyectoCarro.c: 341: CCPR2L=Duty*PR2;
  2641  000C42  C02C  F010         	movff	_Duty,___ftmul@f2
  2642  000C46  C02D  F011         	movff	_Duty+1,___ftmul@f2+1
  2643  000C4A  C02E  F012         	movff	_Duty+2,___ftmul@f2+2
  2644  000C4E  50CB               	movf	203,w,c	;volatile
  2645  000C50  ECBC  F00A         	call	___lbtoft
  2646  000C54  C009  F00D         	movff	?___lbtoft,___ftmul@f1
  2647  000C58  C00A  F00E         	movff	?___lbtoft+1,___ftmul@f1+1
  2648  000C5C  C00B  F00F         	movff	?___lbtoft+2,___ftmul@f1+2
  2649  000C60  EC8C  F008         	call	___ftmul	;wreg free
  2650  000C64  C00D  F01C         	movff	?___ftmul,___fttol@f1
  2651  000C68  C00E  F01D         	movff	?___ftmul+1,___fttol@f1+1
  2652  000C6C  C00F  F01E         	movff	?___ftmul+2,___fttol@f1+2
  2653  000C70  EC06  F009         	call	___fttol	;wreg free
  2654  000C74  501C               	movf	?___fttol^0,w,c
  2655  000C76  6EBB               	movwf	187,c	;volatile
  2656                           
  2657                           ;ProyectoCarro.c: 342: LATD=0b10100001;
  2658  000C78  0EA1               	movlw	161
  2659  000C7A  6E8C               	movwf	140,c	;volatile
  2660                           
  2661                           ;ProyectoCarro.c: 343: break;
  2662  000C7C  0012               	return	
  2663  000C7E                     i2l1854:
  2664                           
  2665                           ;ProyectoCarro.c: 345: Duty=1;
  2666  000C7E  0E00               	movlw	0
  2667  000C80  6E2C               	movwf	_Duty^0,c
  2668  000C82  0E80               	movlw	128
  2669  000C84  6E2D               	movwf	(_Duty+1)^0,c
  2670  000C86  0E3F               	movlw	63
  2671  000C88  6E2E               	movwf	(_Duty+2)^0,c
  2672                           
  2673                           ;ProyectoCarro.c: 346: CCPR1L=Duty*PR2;
  2674  000C8A  C02C  F010         	movff	_Duty,___ftmul@f2
  2675  000C8E  C02D  F011         	movff	_Duty+1,___ftmul@f2+1
  2676  000C92  C02E  F012         	movff	_Duty+2,___ftmul@f2+2
  2677  000C96  50CB               	movf	203,w,c	;volatile
  2678  000C98  ECBC  F00A         	call	___lbtoft
  2679  000C9C  C009  F00D         	movff	?___lbtoft,___ftmul@f1
  2680  000CA0  C00A  F00E         	movff	?___lbtoft+1,___ftmul@f1+1
  2681  000CA4  C00B  F00F         	movff	?___lbtoft+2,___ftmul@f1+2
  2682  000CA8  EC8C  F008         	call	___ftmul	;wreg free
  2683  000CAC  C00D  F01C         	movff	?___ftmul,___fttol@f1
  2684  000CB0  C00E  F01D         	movff	?___ftmul+1,___fttol@f1+1
  2685  000CB4  C00F  F01E         	movff	?___ftmul+2,___fttol@f1+2
  2686  000CB8  EC06  F009         	call	___fttol	;wreg free
  2687  000CBC  501C               	movf	?___fttol^0,w,c
  2688  000CBE  6EBE               	movwf	190,c	;volatile
  2689                           
  2690                           ;ProyectoCarro.c: 347: CCPR2L=Duty*PR2;
  2691  000CC0  C02C  F010         	movff	_Duty,___ftmul@f2
  2692  000CC4  C02D  F011         	movff	_Duty+1,___ftmul@f2+1
  2693  000CC8  C02E  F012         	movff	_Duty+2,___ftmul@f2+2
  2694  000CCC  50CB               	movf	203,w,c	;volatile
  2695  000CCE  ECBC  F00A         	call	___lbtoft
  2696  000CD2  C009  F00D         	movff	?___lbtoft,___ftmul@f1
  2697  000CD6  C00A  F00E         	movff	?___lbtoft+1,___ftmul@f1+1
  2698  000CDA  C00B  F00F         	movff	?___lbtoft+2,___ftmul@f1+2
  2699  000CDE  EC8C  F008         	call	___ftmul	;wreg free
  2700  000CE2  C00D  F01C         	movff	?___ftmul,___fttol@f1
  2701  000CE6  C00E  F01D         	movff	?___ftmul+1,___fttol@f1+1
  2702  000CEA  C00F  F01E         	movff	?___ftmul+2,___fttol@f1+2
  2703  000CEE  EC06  F009         	call	___fttol	;wreg free
  2704  000CF2  501C               	movf	?___fttol^0,w,c
  2705  000CF4  6EBB               	movwf	187,c	;volatile
  2706                           
  2707                           ;ProyectoCarro.c: 348: LATD=0b01010001;
  2708  000CF6  0E51               	movlw	81
  2709  000CF8  6E8C               	movwf	140,c	;volatile
  2710                           
  2711                           ;ProyectoCarro.c: 349: break;
  2712  000CFA  0012               	return	
  2713  000CFC                     i2l1860:
  2714                           
  2715                           ;ProyectoCarro.c: 352: Duty=1;
  2716  000CFC  0E00               	movlw	0
  2717  000CFE  6E2C               	movwf	_Duty^0,c
  2718  000D00  0E80               	movlw	128
  2719  000D02  6E2D               	movwf	(_Duty+1)^0,c
  2720  000D04  0E3F               	movlw	63
  2721  000D06  6E2E               	movwf	(_Duty+2)^0,c
  2722                           
  2723                           ;ProyectoCarro.c: 353: CCPR1L=Duty*PR2;
  2724  000D08  C02C  F010         	movff	_Duty,___ftmul@f2
  2725  000D0C  C02D  F011         	movff	_Duty+1,___ftmul@f2+1
  2726  000D10  C02E  F012         	movff	_Duty+2,___ftmul@f2+2
  2727  000D14  50CB               	movf	203,w,c	;volatile
  2728  000D16  ECBC  F00A         	call	___lbtoft
  2729  000D1A  C009  F00D         	movff	?___lbtoft,___ftmul@f1
  2730  000D1E  C00A  F00E         	movff	?___lbtoft+1,___ftmul@f1+1
  2731  000D22  C00B  F00F         	movff	?___lbtoft+2,___ftmul@f1+2
  2732  000D26  EC8C  F008         	call	___ftmul	;wreg free
  2733  000D2A  C00D  F01C         	movff	?___ftmul,___fttol@f1
  2734  000D2E  C00E  F01D         	movff	?___ftmul+1,___fttol@f1+1
  2735  000D32  C00F  F01E         	movff	?___ftmul+2,___fttol@f1+2
  2736  000D36  EC06  F009         	call	___fttol	;wreg free
  2737  000D3A  501C               	movf	?___fttol^0,w,c
  2738  000D3C  6EBE               	movwf	190,c	;volatile
  2739                           
  2740                           ;ProyectoCarro.c: 354: CCPR2L=Duty*PR2;
  2741  000D3E  C02C  F010         	movff	_Duty,___ftmul@f2
  2742  000D42  C02D  F011         	movff	_Duty+1,___ftmul@f2+1
  2743  000D46  C02E  F012         	movff	_Duty+2,___ftmul@f2+2
  2744  000D4A  50CB               	movf	203,w,c	;volatile
  2745  000D4C  ECBC  F00A         	call	___lbtoft
  2746  000D50  C009  F00D         	movff	?___lbtoft,___ftmul@f1
  2747  000D54  C00A  F00E         	movff	?___lbtoft+1,___ftmul@f1+1
  2748  000D58  C00B  F00F         	movff	?___lbtoft+2,___ftmul@f1+2
  2749  000D5C  EC8C  F008         	call	___ftmul	;wreg free
  2750  000D60  C00D  F01C         	movff	?___ftmul,___fttol@f1
  2751  000D64  C00E  F01D         	movff	?___ftmul+1,___fttol@f1+1
  2752  000D68  C00F  F01E         	movff	?___ftmul+2,___fttol@f1+2
  2753  000D6C  EC06  F009         	call	___fttol	;wreg free
  2754  000D70  501C               	movf	?___fttol^0,w,c
  2755  000D72  6EBB               	movwf	187,c	;volatile
  2756                           
  2757                           ;ProyectoCarro.c: 355: LATD=0b10010001;
  2758  000D74  0E91               	movlw	145
  2759  000D76  6E8C               	movwf	140,c	;volatile
  2760                           
  2761                           ;ProyectoCarro.c: 356: break;
  2762  000D78  0012               	return	
  2763  000D7A                     i2l1866:
  2764                           
  2765                           ;ProyectoCarro.c: 359: Duty=1;
  2766  000D7A  0E00               	movlw	0
  2767  000D7C  6E2C               	movwf	_Duty^0,c
  2768  000D7E  0E80               	movlw	128
  2769  000D80  6E2D               	movwf	(_Duty+1)^0,c
  2770  000D82  0E3F               	movlw	63
  2771  000D84  6E2E               	movwf	(_Duty+2)^0,c
  2772                           
  2773                           ;ProyectoCarro.c: 360: CCPR1L=Duty*PR2;
  2774  000D86  C02C  F010         	movff	_Duty,___ftmul@f2
  2775  000D8A  C02D  F011         	movff	_Duty+1,___ftmul@f2+1
  2776  000D8E  C02E  F012         	movff	_Duty+2,___ftmul@f2+2
  2777  000D92  50CB               	movf	203,w,c	;volatile
  2778  000D94  ECBC  F00A         	call	___lbtoft
  2779  000D98  C009  F00D         	movff	?___lbtoft,___ftmul@f1
  2780  000D9C  C00A  F00E         	movff	?___lbtoft+1,___ftmul@f1+1
  2781  000DA0  C00B  F00F         	movff	?___lbtoft+2,___ftmul@f1+2
  2782  000DA4  EC8C  F008         	call	___ftmul	;wreg free
  2783  000DA8  C00D  F01C         	movff	?___ftmul,___fttol@f1
  2784  000DAC  C00E  F01D         	movff	?___ftmul+1,___fttol@f1+1
  2785  000DB0  C00F  F01E         	movff	?___ftmul+2,___fttol@f1+2
  2786  000DB4  EC06  F009         	call	___fttol	;wreg free
  2787  000DB8  501C               	movf	?___fttol^0,w,c
  2788  000DBA  6EBE               	movwf	190,c	;volatile
  2789                           
  2790                           ;ProyectoCarro.c: 361: CCPR2L=Duty*PR2;
  2791  000DBC  C02C  F010         	movff	_Duty,___ftmul@f2
  2792  000DC0  C02D  F011         	movff	_Duty+1,___ftmul@f2+1
  2793  000DC4  C02E  F012         	movff	_Duty+2,___ftmul@f2+2
  2794  000DC8  50CB               	movf	203,w,c	;volatile
  2795  000DCA  ECBC  F00A         	call	___lbtoft
  2796  000DCE  C009  F00D         	movff	?___lbtoft,___ftmul@f1
  2797  000DD2  C00A  F00E         	movff	?___lbtoft+1,___ftmul@f1+1
  2798  000DD6  C00B  F00F         	movff	?___lbtoft+2,___ftmul@f1+2
  2799  000DDA  EC8C  F008         	call	___ftmul	;wreg free
  2800  000DDE  C00D  F01C         	movff	?___ftmul,___fttol@f1
  2801  000DE2  C00E  F01D         	movff	?___ftmul+1,___fttol@f1+1
  2802  000DE6  C00F  F01E         	movff	?___ftmul+2,___fttol@f1+2
  2803  000DEA  EC06  F009         	call	___fttol	;wreg free
  2804  000DEE  501C               	movf	?___fttol^0,w,c
  2805  000DF0  6EBB               	movwf	187,c	;volatile
  2806                           
  2807                           ;ProyectoCarro.c: 362: LATD=0b01100001;
  2808  000DF2  0E61               	movlw	97
  2809  000DF4  6E8C               	movwf	140,c	;volatile
  2810                           
  2811                           ;ProyectoCarro.c: 363: break;
  2812  000DF6  0012               	return	
  2813  000DF8                     i2l1872:
  2814                           
  2815                           ;ProyectoCarro.c: 367: Duty=1;
  2816  000DF8  0E00               	movlw	0
  2817  000DFA  6E2C               	movwf	_Duty^0,c
  2818  000DFC  0E80               	movlw	128
  2819  000DFE  6E2D               	movwf	(_Duty+1)^0,c
  2820  000E00  0E3F               	movlw	63
  2821  000E02  6E2E               	movwf	(_Duty+2)^0,c
  2822                           
  2823                           ;ProyectoCarro.c: 368: CCPR1L=Duty*PR2;
  2824  000E04  C02C  F010         	movff	_Duty,___ftmul@f2
  2825  000E08  C02D  F011         	movff	_Duty+1,___ftmul@f2+1
  2826  000E0C  C02E  F012         	movff	_Duty+2,___ftmul@f2+2
  2827  000E10  50CB               	movf	203,w,c	;volatile
  2828  000E12  ECBC  F00A         	call	___lbtoft
  2829  000E16  C009  F00D         	movff	?___lbtoft,___ftmul@f1
  2830  000E1A  C00A  F00E         	movff	?___lbtoft+1,___ftmul@f1+1
  2831  000E1E  C00B  F00F         	movff	?___lbtoft+2,___ftmul@f1+2
  2832  000E22  EC8C  F008         	call	___ftmul	;wreg free
  2833  000E26  C00D  F01C         	movff	?___ftmul,___fttol@f1
  2834  000E2A  C00E  F01D         	movff	?___ftmul+1,___fttol@f1+1
  2835  000E2E  C00F  F01E         	movff	?___ftmul+2,___fttol@f1+2
  2836  000E32  EC06  F009         	call	___fttol	;wreg free
  2837  000E36  501C               	movf	?___fttol^0,w,c
  2838  000E38  6EBE               	movwf	190,c	;volatile
  2839                           
  2840                           ;ProyectoCarro.c: 369: CCPR2L=0;
  2841  000E3A  0E00               	movlw	0
  2842  000E3C  6EBB               	movwf	187,c	;volatile
  2843                           
  2844                           ;ProyectoCarro.c: 370: LATD=0b10010001;
  2845  000E3E  0E91               	movlw	145
  2846  000E40  6E8C               	movwf	140,c	;volatile
  2847                           
  2848                           ;ProyectoCarro.c: 371: break;
  2849  000E42  0012               	return	
  2850  000E44                     i2l1880:
  2851                           
  2852                           ;ProyectoCarro.c: 374: Duty=1;
  2853  000E44  0E00               	movlw	0
  2854  000E46  6E2C               	movwf	_Duty^0,c
  2855  000E48  0E80               	movlw	128
  2856  000E4A  6E2D               	movwf	(_Duty+1)^0,c
  2857  000E4C  0E3F               	movlw	63
  2858  000E4E  6E2E               	movwf	(_Duty+2)^0,c
  2859                           
  2860                           ;ProyectoCarro.c: 375: CCPR1L=0;
  2861  000E50  0E00               	movlw	0
  2862  000E52  6EBE               	movwf	190,c	;volatile
  2863                           
  2864                           ;ProyectoCarro.c: 376: CCPR2L=Duty*PR2;
  2865  000E54  C02C  F010         	movff	_Duty,___ftmul@f2
  2866  000E58  C02D  F011         	movff	_Duty+1,___ftmul@f2+1
  2867  000E5C  C02E  F012         	movff	_Duty+2,___ftmul@f2+2
  2868  000E60  50CB               	movf	203,w,c	;volatile
  2869  000E62  ECBC  F00A         	call	___lbtoft
  2870  000E66  C009  F00D         	movff	?___lbtoft,___ftmul@f1
  2871  000E6A  C00A  F00E         	movff	?___lbtoft+1,___ftmul@f1+1
  2872  000E6E  C00B  F00F         	movff	?___lbtoft+2,___ftmul@f1+2
  2873  000E72  EC8C  F008         	call	___ftmul	;wreg free
  2874  000E76  C00D  F01C         	movff	?___ftmul,___fttol@f1
  2875  000E7A  C00E  F01D         	movff	?___ftmul+1,___fttol@f1+1
  2876  000E7E  C00F  F01E         	movff	?___ftmul+2,___fttol@f1+2
  2877  000E82  EC06  F009         	call	___fttol	;wreg free
  2878  000E86  501C               	movf	?___fttol^0,w,c
  2879  000E88  6EBB               	movwf	187,c	;volatile
  2880                           
  2881                           ;ProyectoCarro.c: 377: LATD=0b01100001;
  2882  000E8A  0E61               	movlw	97
  2883  000E8C  6E8C               	movwf	140,c	;volatile
  2884                           
  2885                           ;ProyectoCarro.c: 378: break;
  2886  000E8E  0012               	return	
  2887  000E90                     i2l1888:
  2888  000E90  502B               	movf	LecturaEntrada@entrada^0,w,c
  2889                           
  2890                           ; Switch size 1, requested type "simple"
  2891                           ; Number of cases is 30, Range of values is 65 to 120
  2892                           ; switch strategies available:
  2893                           ; Name         Instructions Cycles
  2894                           ; simple_byte           91    46 (average)
  2895                           ;	Chosen strategy is simple_byte
  2896  000E92  0A41               	xorlw	65	; case 65
  2897  000E94  B4D8               	btfsc	status,2,c
  2898  000E96  EF55  F000         	goto	i2l1710
  2899  000E9A  0A03               	xorlw	3	; case 66
  2900  000E9C  B4D8               	btfsc	status,2,c
  2901  000E9E  EFD5  F000         	goto	i2l1722
  2902  000EA2  0A01               	xorlw	1	; case 67
  2903  000EA4  B4D8               	btfsc	status,2,c
  2904  000EA6  EF53  F001         	goto	i2l1734
  2905  000EAA  0A07               	xorlw	7	; case 68
  2906  000EAC  B4D8               	btfsc	status,2,c
  2907  000EAE  EFD1  F001         	goto	i2l1746
  2908  000EB2  0A01               	xorlw	1	; case 69
  2909  000EB4  B4D8               	btfsc	status,2,c
  2910  000EB6  EF4F  F002         	goto	i2l1758
  2911  000EBA  0A03               	xorlw	3	; case 70
  2912  000EBC  B4D8               	btfsc	status,2,c
  2913  000EBE  EFCD  F002         	goto	i2l1770
  2914  000EC2  0A01               	xorlw	1	; case 71
  2915  000EC4  B4D8               	btfsc	status,2,c
  2916  000EC6  EF4B  F003         	goto	i2l1782
  2917  000ECA  0A0F               	xorlw	15	; case 72
  2918  000ECC  B4D8               	btfsc	status,2,c
  2919  000ECE  D461               	goto	i2l1794
  2920  000ED0  0A01               	xorlw	1	; case 73
  2921  000ED2  B4D8               	btfsc	status,2,c
  2922  000ED4  D4DC               	goto	i2l1806
  2923  000ED6  0A03               	xorlw	3	; case 74
  2924  000ED8  B4D8               	btfsc	status,2,c
  2925  000EDA  D557               	goto	i2l1818
  2926  000EDC  0A01               	xorlw	1	; case 75
  2927  000EDE  B4D8               	btfsc	status,2,c
  2928  000EE0  D5D2               	goto	i2l1830
  2929  000EE2  0A07               	xorlw	7	; case 76
  2930  000EE4  B4D8               	btfsc	status,2,c
  2931  000EE6  D64D               	goto	i2l1842
  2932  000EE8  0A01               	xorlw	1	; case 77
  2933  000EEA  B4D8               	btfsc	status,2,c
  2934  000EEC  D6C8               	goto	i2l1854
  2935  000EEE  0A1B               	xorlw	27	; case 86
  2936  000EF0  B4D8               	btfsc	status,2,c
  2937  000EF2  D7A8               	goto	i2l1880
  2938  000EF4  0A0E               	xorlw	14	; case 88
  2939  000EF6  B4D8               	btfsc	status,2,c
  2940  000EF8  D740               	goto	i2l1866
  2941  000EFA  0A39               	xorlw	57	; case 97
  2942  000EFC  B4D8               	btfsc	status,2,c
  2943  000EFE  EF14  F000         	goto	i2l1704
  2944  000F02  0A03               	xorlw	3	; case 98
  2945  000F04  B4D8               	btfsc	status,2,c
  2946  000F06  EF96  F000         	goto	i2l1716
  2947  000F0A  0A01               	xorlw	1	; case 99
  2948  000F0C  B4D8               	btfsc	status,2,c
  2949  000F0E  EF14  F001         	goto	i2l1728
  2950  000F12  0A07               	xorlw	7	; case 100
  2951  000F14  B4D8               	btfsc	status,2,c
  2952  000F16  EF92  F001         	goto	i2l1740
  2953  000F1A  0A01               	xorlw	1	; case 101
  2954  000F1C  B4D8               	btfsc	status,2,c
  2955  000F1E  EF10  F002         	goto	i2l1752
  2956  000F22  0A03               	xorlw	3	; case 102
  2957  000F24  B4D8               	btfsc	status,2,c
  2958  000F26  EF8E  F002         	goto	i2l1764
  2959  000F2A  0A01               	xorlw	1	; case 103
  2960  000F2C  B4D8               	btfsc	status,2,c
  2961  000F2E  EF0C  F003         	goto	i2l1776
  2962  000F32  0A0F               	xorlw	15	; case 104
  2963  000F34  B4D8               	btfsc	status,2,c
  2964  000F36  EF8A  F003         	goto	i2l1788
  2965  000F3A  0A01               	xorlw	1	; case 105
  2966  000F3C  B4D8               	btfsc	status,2,c
  2967  000F3E  D468               	goto	i2l1800
  2968  000F40  0A03               	xorlw	3	; case 106
  2969  000F42  B4D8               	btfsc	status,2,c
  2970  000F44  D4E3               	goto	i2l1812
  2971  000F46  0A01               	xorlw	1	; case 107
  2972  000F48  B4D8               	btfsc	status,2,c
  2973  000F4A  D55E               	goto	i2l1824
  2974  000F4C  0A07               	xorlw	7	; case 108
  2975  000F4E  B4D8               	btfsc	status,2,c
  2976  000F50  D5D9               	goto	i2l1836
  2977  000F52  0A01               	xorlw	1	; case 109
  2978  000F54  B4D8               	btfsc	status,2,c
  2979  000F56  D654               	goto	i2l1848
  2980  000F58  0A1B               	xorlw	27	; case 118
  2981  000F5A  B4D8               	btfsc	status,2,c
  2982  000F5C  D74D               	goto	i2l1872
  2983  000F5E  0A0E               	xorlw	14	; case 120
  2984  000F60  A4D8               	btfss	status,2,c
  2985  000F62  0012               	return	
  2986  000F64  D6CB               	goto	i2l1860
  2987  000F66                     __end_of_LecturaEntrada:
  2988                           	callstack 0
  2989                           
  2990 ;; *************** function ___lbtoft *****************
  2991 ;; Defined at:
  2992 ;;		line 27 in file "C:\Program Files\Microchip\xc8\v2.32\pic\sources\c90\common\lbtoft.c"
  2993 ;; Parameters:    Size  Location     Type
  2994 ;;  c               1    wreg     unsigned char 
  2995 ;; Auto vars:     Size  Location     Type
  2996 ;;  c               1   11[COMRAM] unsigned char 
  2997 ;; Return value:  Size  Location     Type
  2998 ;;                  3    8[COMRAM] float 
  2999 ;; Registers used:
  3000 ;;		wreg, status,2, status,0, cstack
  3001 ;; Tracked objects:
  3002 ;;		On entry : 0/0
  3003 ;;		On exit  : 0/0
  3004 ;;		Unchanged: 0/0
  3005 ;; Data sizes:     COMRAM   BANK0   BANK1   BANK2   BANK3   BANK4   BANK5   BANK6   BANK7
  3006 ;;      Params:         3       0       0       0       0       0       0       0       0
  3007 ;;      Locals:         1       0       0       0       0       0       0       0       0
  3008 ;;      Temps:          0       0       0       0       0       0       0       0       0
  3009 ;;      Totals:         4       0       0       0       0       0       0       0       0
  3010 ;;Total ram usage:        4 bytes
  3011 ;; Hardware stack levels used: 1
  3012 ;; Hardware stack levels required when called: 1
  3013 ;; This function calls:
  3014 ;;		i2___ftpack
  3015 ;; This function is called by:
  3016 ;;		_LecturaEntrada
  3017 ;; This function uses a non-reentrant model
  3018 ;;
  3019                           
  3020                           	psect	text10
  3021  001578                     __ptext10:
  3022                           	callstack 0
  3023  001578                     ___lbtoft:
  3024                           	callstack 25
  3025                           
  3026                           ;incstack = 0
  3027                           ;___lbtoft@c stored from wreg
  3028  001578  6E0C               	movwf	___lbtoft@c^0,c
  3029  00157A  500C               	movf	___lbtoft@c^0,w,c
  3030  00157C  6E01               	movwf	i2___ftpack@arg^0,c
  3031  00157E  6A02               	clrf	(i2___ftpack@arg+1)^0,c
  3032  001580  6A03               	clrf	(i2___ftpack@arg+2)^0,c
  3033  001582  0E8E               	movlw	142
  3034  001584  6E04               	movwf	i2___ftpack@exp^0,c
  3035  001586  0E00               	movlw	0
  3036  001588  6E05               	movwf	i2___ftpack@sign^0,c
  3037  00158A  ECC6  F009         	call	i2___ftpack	;wreg free
  3038  00158E  C001  F009         	movff	?i2___ftpack,?___lbtoft
  3039  001592  C002  F00A         	movff	?i2___ftpack+1,?___lbtoft+1
  3040  001596  C003  F00B         	movff	?i2___ftpack+2,?___lbtoft+2
  3041  00159A  0012               	return		;funcret
  3042  00159C                     __end_of___lbtoft:
  3043                           	callstack 0
  3044                           
  3045 ;; *************** function ___fttol *****************
  3046 ;; Defined at:
  3047 ;;		line 44 in file "C:\Program Files\Microchip\xc8\v2.32\pic\sources\c90\common\fttol.c"
  3048 ;; Parameters:    Size  Location     Type
  3049 ;;  f1              3   27[COMRAM] float 
  3050 ;; Auto vars:     Size  Location     Type
  3051 ;;  lval            4   37[COMRAM] unsigned long 
  3052 ;;  exp1            1   41[COMRAM] unsigned char 
  3053 ;;  sign1           1   36[COMRAM] unsigned char 
  3054 ;; Return value:  Size  Location     Type
  3055 ;;                  4   27[COMRAM] long 
  3056 ;; Registers used:
  3057 ;;		wreg, status,2, status,0
  3058 ;; Tracked objects:
  3059 ;;		On entry : 0/0
  3060 ;;		On exit  : 0/0
  3061 ;;		Unchanged: 0/0
  3062 ;; Data sizes:     COMRAM   BANK0   BANK1   BANK2   BANK3   BANK4   BANK5   BANK6   BANK7
  3063 ;;      Params:         4       0       0       0       0       0       0       0       0
  3064 ;;      Locals:         6       0       0       0       0       0       0       0       0
  3065 ;;      Temps:          5       0       0       0       0       0       0       0       0
  3066 ;;      Totals:        15       0       0       0       0       0       0       0       0
  3067 ;;Total ram usage:       15 bytes
  3068 ;; Hardware stack levels used: 1
  3069 ;; This function calls:
  3070 ;;		Nothing
  3071 ;; This function is called by:
  3072 ;;		_LecturaEntrada
  3073 ;; This function uses a non-reentrant model
  3074 ;;
  3075                           
  3076                           	psect	text11
  3077  00120C                     __ptext11:
  3078                           	callstack 0
  3079  00120C                     ___fttol:
  3080                           	callstack 26
  3081                           
  3082                           ;incstack = 0
  3083  00120C  C01E  F020         	movff	___fttol@f1+2,??___fttol
  3084  001210  6A21               	clrf	(??___fttol+1)^0,c
  3085  001212  6A22               	clrf	(??___fttol+2)^0,c
  3086  001214  341D               	rlcf	(___fttol@f1+1)^0,w,c
  3087  001216  3620               	rlcf	??___fttol^0,f,c
  3088  001218  E301               	bnc	u70_41
  3089  00121A  8021               	bsf	(??___fttol+1)^0,0,c
  3090  00121C                     u70_41:
  3091  00121C  5020               	movf	??___fttol^0,w,c
  3092  00121E  6E2A               	movwf	___fttol@exp1^0,c
  3093  001220  502A               	movf	___fttol@exp1^0,w,c
  3094  001222  A4D8               	btfss	status,2,c
  3095  001224  D009               	goto	i2l1652
  3096  001226                     i2u71_40:
  3097  001226  0E00               	movlw	0
  3098  001228  6E1C               	movwf	?___fttol^0,c
  3099  00122A  0E00               	movlw	0
  3100  00122C  6E1D               	movwf	(?___fttol+1)^0,c
  3101  00122E  0E00               	movlw	0
  3102  001230  6E1E               	movwf	(?___fttol+2)^0,c
  3103  001232  0E00               	movlw	0
  3104  001234  6E1F               	movwf	(?___fttol+3)^0,c
  3105  001236  0012               	return	
  3106  001238                     i2l1652:
  3107  001238  0E17               	movlw	23
  3108  00123A  6E20               	movwf	??___fttol^0,c
  3109  00123C  C01C  F021         	movff	___fttol@f1,??___fttol+1
  3110  001240  C01D  F022         	movff	___fttol@f1+1,??___fttol+2
  3111  001244  C01E  F023         	movff	___fttol@f1+2,??___fttol+3
  3112  001248  2820               	incf	??___fttol^0,w,c
  3113  00124A  6E24               	movwf	(??___fttol+4)^0,c
  3114  00124C  D004               	goto	i2u72_40
  3115  00124E                     i2u72_45:
  3116  00124E  90D8               	bcf	status,0,c
  3117  001250  3223               	rrcf	(??___fttol+3)^0,f,c
  3118  001252  3222               	rrcf	(??___fttol+2)^0,f,c
  3119  001254  3221               	rrcf	(??___fttol+1)^0,f,c
  3120  001256                     i2u72_40:
  3121  001256  2E24               	decfsz	(??___fttol+4)^0,f,c
  3122  001258  D7FA               	goto	i2u72_45
  3123  00125A  5021               	movf	(??___fttol+1)^0,w,c
  3124  00125C  6E25               	movwf	___fttol@sign1^0,c
  3125  00125E  8E1D               	bsf	(___fttol@f1+1)^0,7,c
  3126  001260  0EFF               	movlw	255
  3127  001262  161C               	andwf	___fttol@f1^0,f,c
  3128  001264  0EFF               	movlw	255
  3129  001266  161D               	andwf	(___fttol@f1+1)^0,f,c
  3130  001268  0E00               	movlw	0
  3131  00126A  161E               	andwf	(___fttol@f1+2)^0,f,c
  3132  00126C  501C               	movf	___fttol@f1^0,w,c
  3133  00126E  6E26               	movwf	___fttol@lval^0,c
  3134  001270  501D               	movf	(___fttol@f1+1)^0,w,c
  3135  001272  6E27               	movwf	(___fttol@lval+1)^0,c
  3136  001274  501E               	movf	(___fttol@f1+2)^0,w,c
  3137  001276  6E28               	movwf	(___fttol@lval+2)^0,c
  3138  001278  6A29               	clrf	(___fttol@lval+3)^0,c
  3139  00127A  0E8E               	movlw	142
  3140  00127C  5E2A               	subwf	___fttol@exp1^0,f,c
  3141  00127E  AE2A               	btfss	___fttol@exp1^0,7,c
  3142  001280  D00D               	goto	i2l1674
  3143  001282  502A               	movf	___fttol@exp1^0,w,c
  3144  001284  0A80               	xorlw	128
  3145  001286  0F8F               	addlw	143
  3146  001288  A0D8               	btfss	status,0,c
  3147  00128A  D7CD               	goto	i2u71_40
  3148  00128C                     i2l1670:
  3149  00128C  90D8               	bcf	status,0,c
  3150  00128E  3229               	rrcf	(___fttol@lval+3)^0,f,c
  3151  001290  3228               	rrcf	(___fttol@lval+2)^0,f,c
  3152  001292  3227               	rrcf	(___fttol@lval+1)^0,f,c
  3153  001294  3226               	rrcf	___fttol@lval^0,f,c
  3154  001296  3E2A               	incfsz	___fttol@exp1^0,f,c
  3155  001298  D7F9               	goto	i2l1670
  3156  00129A  D00D               	goto	i2u76_40
  3157  00129C                     i2l1674:
  3158  00129C  0E17               	movlw	23
  3159  00129E  642A               	cpfsgt	___fttol@exp1^0,c
  3160  0012A0  D007               	goto	i2l1682
  3161  0012A2  D7C1               	goto	i2u71_40
  3162  0012A4                     i2l1680:
  3163  0012A4  90D8               	bcf	status,0,c
  3164  0012A6  3626               	rlcf	___fttol@lval^0,f,c
  3165  0012A8  3627               	rlcf	(___fttol@lval+1)^0,f,c
  3166  0012AA  3628               	rlcf	(___fttol@lval+2)^0,f,c
  3167  0012AC  3629               	rlcf	(___fttol@lval+3)^0,f,c
  3168  0012AE  062A               	decf	___fttol@exp1^0,f,c
  3169  0012B0                     i2l1682:
  3170  0012B0  502A               	movf	___fttol@exp1^0,w,c
  3171  0012B2  A4D8               	btfss	status,2,c
  3172  0012B4  D7F7               	goto	i2l1680
  3173  0012B6                     i2u76_40:
  3174  0012B6  5025               	movf	___fttol@sign1^0,w,c
  3175  0012B8  B4D8               	btfsc	status,2,c
  3176  0012BA  D008               	goto	i2l1688
  3177  0012BC  1E29               	comf	(___fttol@lval+3)^0,f,c
  3178  0012BE  1E28               	comf	(___fttol@lval+2)^0,f,c
  3179  0012C0  1E27               	comf	(___fttol@lval+1)^0,f,c
  3180  0012C2  6C26               	negf	___fttol@lval^0,c
  3181  0012C4  0E00               	movlw	0
  3182  0012C6  2227               	addwfc	(___fttol@lval+1)^0,f,c
  3183  0012C8  2228               	addwfc	(___fttol@lval+2)^0,f,c
  3184  0012CA  2229               	addwfc	(___fttol@lval+3)^0,f,c
  3185  0012CC                     i2l1688:
  3186  0012CC  C026  F01C         	movff	___fttol@lval,?___fttol
  3187  0012D0  C027  F01D         	movff	___fttol@lval+1,?___fttol+1
  3188  0012D4  C028  F01E         	movff	___fttol@lval+2,?___fttol+2
  3189  0012D8  C029  F01F         	movff	___fttol@lval+3,?___fttol+3
  3190  0012DC  0012               	return		;funcret
  3191  0012DE                     __end_of___fttol:
  3192                           	callstack 0
  3193                           
  3194 ;; *************** function ___ftmul *****************
  3195 ;; Defined at:
  3196 ;;		line 62 in file "C:\Program Files\Microchip\xc8\v2.32\pic\sources\c90\common\ftmul.c"
  3197 ;; Parameters:    Size  Location     Type
  3198 ;;  f1              3   12[COMRAM] float 
  3199 ;;  f2              3   15[COMRAM] float 
  3200 ;; Auto vars:     Size  Location     Type
  3201 ;;  f3_as_produc    3   22[COMRAM] unsigned um
  3202 ;;  sign            1   26[COMRAM] unsigned char 
  3203 ;;  cntr            1   25[COMRAM] unsigned char 
  3204 ;;  exp             1   21[COMRAM] unsigned char 
  3205 ;; Return value:  Size  Location     Type
  3206 ;;                  3   12[COMRAM] float 
  3207 ;; Registers used:
  3208 ;;		wreg, status,2, status,0, cstack
  3209 ;; Tracked objects:
  3210 ;;		On entry : 0/0
  3211 ;;		On exit  : 0/0
  3212 ;;		Unchanged: 0/0
  3213 ;; Data sizes:     COMRAM   BANK0   BANK1   BANK2   BANK3   BANK4   BANK5   BANK6   BANK7
  3214 ;;      Params:         6       0       0       0       0       0       0       0       0
  3215 ;;      Locals:         6       0       0       0       0       0       0       0       0
  3216 ;;      Temps:          3       0       0       0       0       0       0       0       0
  3217 ;;      Totals:        15       0       0       0       0       0       0       0       0
  3218 ;;Total ram usage:       15 bytes
  3219 ;; Hardware stack levels used: 1
  3220 ;; Hardware stack levels required when called: 1
  3221 ;; This function calls:
  3222 ;;		i2___ftpack
  3223 ;; This function is called by:
  3224 ;;		_LecturaEntrada
  3225 ;; This function uses a non-reentrant model
  3226 ;;
  3227                           
  3228                           	psect	text12
  3229  001118                     __ptext12:
  3230                           	callstack 0
  3231  001118                     ___ftmul:
  3232                           	callstack 25
  3233                           
  3234                           ;incstack = 0
  3235  001118  C00F  F013         	movff	___ftmul@f1+2,??___ftmul
  3236  00111C  6A14               	clrf	(??___ftmul+1)^0,c
  3237  00111E  6A15               	clrf	(??___ftmul+2)^0,c
  3238  001120  340E               	rlcf	(___ftmul@f1+1)^0,w,c
  3239  001122  3613               	rlcf	??___ftmul^0,f,c
  3240  001124  E301               	bnc	u64_41
  3241  001126  8014               	bsf	(??___ftmul+1)^0,0,c
  3242  001128                     u64_41:
  3243  001128  5013               	movf	??___ftmul^0,w,c
  3244  00112A  6E16               	movwf	___ftmul@exp^0,c
  3245  00112C  5016               	movf	___ftmul@exp^0,w,c
  3246  00112E  A4D8               	btfss	status,2,c
  3247  001130  D007               	goto	i2l1604
  3248  001132  0E00               	movlw	0
  3249  001134  6E0D               	movwf	?___ftmul^0,c
  3250  001136  0E00               	movlw	0
  3251  001138  6E0E               	movwf	(?___ftmul+1)^0,c
  3252  00113A  0E00               	movlw	0
  3253  00113C  6E0F               	movwf	(?___ftmul+2)^0,c
  3254  00113E  0012               	return	
  3255  001140                     i2l1604:
  3256  001140  C012  F013         	movff	___ftmul@f2+2,??___ftmul
  3257  001144  6A14               	clrf	(??___ftmul+1)^0,c
  3258  001146  6A15               	clrf	(??___ftmul+2)^0,c
  3259  001148  3411               	rlcf	(___ftmul@f2+1)^0,w,c
  3260  00114A  3613               	rlcf	??___ftmul^0,f,c
  3261  00114C  E301               	bnc	u66_41
  3262  00114E  8014               	bsf	(??___ftmul+1)^0,0,c
  3263  001150                     u66_41:
  3264  001150  5013               	movf	??___ftmul^0,w,c
  3265  001152  6E1B               	movwf	___ftmul@sign^0,c
  3266  001154  501B               	movf	___ftmul@sign^0,w,c
  3267  001156  A4D8               	btfss	status,2,c
  3268  001158  D007               	goto	i2l1610
  3269  00115A  0E00               	movlw	0
  3270  00115C  6E0D               	movwf	?___ftmul^0,c
  3271  00115E  0E00               	movlw	0
  3272  001160  6E0E               	movwf	(?___ftmul+1)^0,c
  3273  001162  0E00               	movlw	0
  3274  001164  6E0F               	movwf	(?___ftmul+2)^0,c
  3275  001166  0012               	return	
  3276  001168                     i2l1610:
  3277  001168  501B               	movf	___ftmul@sign^0,w,c
  3278  00116A  0F7B               	addlw	123
  3279  00116C  2616               	addwf	___ftmul@exp^0,f,c
  3280  00116E  C00F  F01B         	movff	___ftmul@f1+2,___ftmul@sign
  3281  001172  5012               	movf	(___ftmul@f2+2)^0,w,c
  3282  001174  1A1B               	xorwf	___ftmul@sign^0,f,c
  3283  001176  0E80               	movlw	128
  3284  001178  161B               	andwf	___ftmul@sign^0,f,c
  3285  00117A  8E0E               	bsf	(___ftmul@f1+1)^0,7,c
  3286  00117C  8E11               	bsf	(___ftmul@f2+1)^0,7,c
  3287  00117E  0EFF               	movlw	255
  3288  001180  1610               	andwf	___ftmul@f2^0,f,c
  3289  001182  0EFF               	movlw	255
  3290  001184  1611               	andwf	(___ftmul@f2+1)^0,f,c
  3291  001186  0E00               	movlw	0
  3292  001188  1612               	andwf	(___ftmul@f2+2)^0,f,c
  3293  00118A  0E00               	movlw	0
  3294  00118C  6E17               	movwf	___ftmul@f3_as_product^0,c
  3295  00118E  0E00               	movlw	0
  3296  001190  6E18               	movwf	(___ftmul@f3_as_product+1)^0,c
  3297  001192  0E00               	movlw	0
  3298  001194  6E19               	movwf	(___ftmul@f3_as_product+2)^0,c
  3299  001196  0E07               	movlw	7
  3300  001198  6E1A               	movwf	___ftmul@cntr^0,c
  3301  00119A                     i2l1624:
  3302  00119A  A00D               	btfss	___ftmul@f1^0,0,c
  3303  00119C  D006               	goto	i2l1628
  3304  00119E  5010               	movf	___ftmul@f2^0,w,c
  3305  0011A0  2617               	addwf	___ftmul@f3_as_product^0,f,c
  3306  0011A2  5011               	movf	(___ftmul@f2+1)^0,w,c
  3307  0011A4  2218               	addwfc	(___ftmul@f3_as_product+1)^0,f,c
  3308  0011A6  5012               	movf	(___ftmul@f2+2)^0,w,c
  3309  0011A8  2219               	addwfc	(___ftmul@f3_as_product+2)^0,f,c
  3310  0011AA                     i2l1628:
  3311  0011AA  90D8               	bcf	status,0,c
  3312  0011AC  320F               	rrcf	(___ftmul@f1+2)^0,f,c
  3313  0011AE  320E               	rrcf	(___ftmul@f1+1)^0,f,c
  3314  0011B0  320D               	rrcf	___ftmul@f1^0,f,c
  3315  0011B2  90D8               	bcf	status,0,c
  3316  0011B4  3610               	rlcf	___ftmul@f2^0,f,c
  3317  0011B6  3611               	rlcf	(___ftmul@f2+1)^0,f,c
  3318  0011B8  3612               	rlcf	(___ftmul@f2+2)^0,f,c
  3319  0011BA  2E1A               	decfsz	___ftmul@cntr^0,f,c
  3320  0011BC  D7EE               	goto	i2l1624
  3321  0011BE  0E09               	movlw	9
  3322  0011C0  6E1A               	movwf	___ftmul@cntr^0,c
  3323  0011C2                     i2l1634:
  3324  0011C2  A00D               	btfss	___ftmul@f1^0,0,c
  3325  0011C4  D006               	goto	i2l1638
  3326  0011C6  5010               	movf	___ftmul@f2^0,w,c
  3327  0011C8  2617               	addwf	___ftmul@f3_as_product^0,f,c
  3328  0011CA  5011               	movf	(___ftmul@f2+1)^0,w,c
  3329  0011CC  2218               	addwfc	(___ftmul@f3_as_product+1)^0,f,c
  3330  0011CE  5012               	movf	(___ftmul@f2+2)^0,w,c
  3331  0011D0  2219               	addwfc	(___ftmul@f3_as_product+2)^0,f,c
  3332  0011D2                     i2l1638:
  3333  0011D2  90D8               	bcf	status,0,c
  3334  0011D4  320F               	rrcf	(___ftmul@f1+2)^0,f,c
  3335  0011D6  320E               	rrcf	(___ftmul@f1+1)^0,f,c
  3336  0011D8  320D               	rrcf	___ftmul@f1^0,f,c
  3337  0011DA  90D8               	bcf	status,0,c
  3338  0011DC  3219               	rrcf	(___ftmul@f3_as_product+2)^0,f,c
  3339  0011DE  3218               	rrcf	(___ftmul@f3_as_product+1)^0,f,c
  3340  0011E0  3217               	rrcf	___ftmul@f3_as_product^0,f,c
  3341  0011E2  2E1A               	decfsz	___ftmul@cntr^0,f,c
  3342  0011E4  D7EE               	goto	i2l1634
  3343  0011E6  C017  F001         	movff	___ftmul@f3_as_product,i2___ftpack@arg
  3344  0011EA  C018  F002         	movff	___ftmul@f3_as_product+1,i2___ftpack@arg+1
  3345  0011EE  C019  F003         	movff	___ftmul@f3_as_product+2,i2___ftpack@arg+2
  3346  0011F2  C016  F004         	movff	___ftmul@exp,i2___ftpack@exp
  3347  0011F6  C01B  F005         	movff	___ftmul@sign,i2___ftpack@sign
  3348  0011FA  ECC6  F009         	call	i2___ftpack	;wreg free
  3349  0011FE  C001  F00D         	movff	?i2___ftpack,?___ftmul
  3350  001202  C002  F00E         	movff	?i2___ftpack+1,?___ftmul+1
  3351  001206  C003  F00F         	movff	?i2___ftpack+2,?___ftmul+2
  3352  00120A  0012               	return		;funcret
  3353  00120C                     __end_of___ftmul:
  3354                           	callstack 0
  3355                           
  3356 ;; *************** function i2___ftpack *****************
  3357 ;; Defined at:
  3358 ;;		line 62 in file "C:\Program Files\Microchip\xc8\v2.32\pic\sources\c90\common\float.c"
  3359 ;; Parameters:    Size  Location     Type
  3360 ;;  arg             3    0[COMRAM] unsigned um
  3361 ;;  exp             1    3[COMRAM] unsigned char 
  3362 ;;  sign            1    4[COMRAM] unsigned char 
  3363 ;; Auto vars:     Size  Location     Type
  3364 ;;		None
  3365 ;; Return value:  Size  Location     Type
  3366 ;;                  3    0[COMRAM] float 
  3367 ;; Registers used:
  3368 ;;		wreg, status,2, status,0
  3369 ;; Tracked objects:
  3370 ;;		On entry : 0/0
  3371 ;;		On exit  : 0/0
  3372 ;;		Unchanged: 0/0
  3373 ;; Data sizes:     COMRAM   BANK0   BANK1   BANK2   BANK3   BANK4   BANK5   BANK6   BANK7
  3374 ;;      Params:         5       0       0       0       0       0       0       0       0
  3375 ;;      Locals:         0       0       0       0       0       0       0       0       0
  3376 ;;      Temps:          3       0       0       0       0       0       0       0       0
  3377 ;;      Totals:         8       0       0       0       0       0       0       0       0
  3378 ;;Total ram usage:        8 bytes
  3379 ;; Hardware stack levels used: 1
  3380 ;; This function calls:
  3381 ;;		Nothing
  3382 ;; This function is called by:
  3383 ;;		___ftmul
  3384 ;;		___lbtoft
  3385 ;; This function uses a non-reentrant model
  3386 ;;
  3387                           
  3388                           	psect	text13
  3389  00138C                     __ptext13:
  3390                           	callstack 0
  3391  00138C                     i2___ftpack:
  3392                           	callstack 25
  3393                           
  3394                           ;incstack = 0
  3395  00138C  5004               	movf	i2___ftpack@exp^0,w,c
  3396  00138E  B4D8               	btfsc	status,2,c
  3397  001390  D005               	goto	i2u49_40
  3398  001392  5001               	movf	i2___ftpack@arg^0,w,c
  3399  001394  1002               	iorwf	(i2___ftpack@arg+1)^0,w,c
  3400  001396  1003               	iorwf	(i2___ftpack@arg+2)^0,w,c
  3401  001398  A4D8               	btfss	status,2,c
  3402  00139A  D00C               	goto	i2l1536
  3403  00139C                     i2u49_40:
  3404  00139C  0E00               	movlw	0
  3405  00139E  6E01               	movwf	?i2___ftpack^0,c
  3406  0013A0  0E00               	movlw	0
  3407  0013A2  6E02               	movwf	(?i2___ftpack+1)^0,c
  3408  0013A4  0E00               	movlw	0
  3409  0013A6  6E03               	movwf	(?i2___ftpack+2)^0,c
  3410  0013A8  0012               	return	
  3411  0013AA                     i2l1534:
  3412  0013AA  2A04               	incf	i2___ftpack@exp^0,f,c
  3413  0013AC  90D8               	bcf	status,0,c
  3414  0013AE  3203               	rrcf	(i2___ftpack@arg+2)^0,f,c
  3415  0013B0  3202               	rrcf	(i2___ftpack@arg+1)^0,f,c
  3416  0013B2  3201               	rrcf	i2___ftpack@arg^0,f,c
  3417  0013B4                     i2l1536:
  3418  0013B4  0E00               	movlw	0
  3419  0013B6  1401               	andwf	i2___ftpack@arg^0,w,c
  3420  0013B8  6E06               	movwf	??i2___ftpack^0,c
  3421  0013BA  0E00               	movlw	0
  3422  0013BC  1402               	andwf	(i2___ftpack@arg+1)^0,w,c
  3423  0013BE  6E07               	movwf	(??i2___ftpack+1)^0,c
  3424  0013C0  0EFE               	movlw	254
  3425  0013C2  1403               	andwf	(i2___ftpack@arg+2)^0,w,c
  3426  0013C4  6E08               	movwf	(??i2___ftpack+2)^0,c
  3427  0013C6  5006               	movf	??i2___ftpack^0,w,c
  3428  0013C8  1007               	iorwf	(??i2___ftpack+1)^0,w,c
  3429  0013CA  1008               	iorwf	(??i2___ftpack+2)^0,w,c
  3430  0013CC  B4D8               	btfsc	status,2,c
  3431  0013CE  D00C               	goto	i2l1542
  3432  0013D0  D7EC               	goto	i2l1534
  3433  0013D2                     i2l1538:
  3434  0013D2  2A04               	incf	i2___ftpack@exp^0,f,c
  3435  0013D4  0E01               	movlw	1
  3436  0013D6  2601               	addwf	i2___ftpack@arg^0,f,c
  3437  0013D8  0E00               	movlw	0
  3438  0013DA  2202               	addwfc	(i2___ftpack@arg+1)^0,f,c
  3439  0013DC  0E00               	movlw	0
  3440  0013DE  2203               	addwfc	(i2___ftpack@arg+2)^0,f,c
  3441  0013E0  90D8               	bcf	status,0,c
  3442  0013E2  3203               	rrcf	(i2___ftpack@arg+2)^0,f,c
  3443  0013E4  3202               	rrcf	(i2___ftpack@arg+1)^0,f,c
  3444  0013E6  3201               	rrcf	i2___ftpack@arg^0,f,c
  3445  0013E8                     i2l1542:
  3446  0013E8  0E00               	movlw	0
  3447  0013EA  1401               	andwf	i2___ftpack@arg^0,w,c
  3448  0013EC  6E06               	movwf	??i2___ftpack^0,c
  3449  0013EE  0E00               	movlw	0
  3450  0013F0  1402               	andwf	(i2___ftpack@arg+1)^0,w,c
  3451  0013F2  6E07               	movwf	(??i2___ftpack+1)^0,c
  3452  0013F4  0EFF               	movlw	255
  3453  0013F6  1403               	andwf	(i2___ftpack@arg+2)^0,w,c
  3454  0013F8  6E08               	movwf	(??i2___ftpack+2)^0,c
  3455  0013FA  5006               	movf	??i2___ftpack^0,w,c
  3456  0013FC  1007               	iorwf	(??i2___ftpack+1)^0,w,c
  3457  0013FE  1008               	iorwf	(??i2___ftpack+2)^0,w,c
  3458  001400  B4D8               	btfsc	status,2,c
  3459  001402  D006               	goto	i2l1546
  3460  001404  D7E6               	goto	i2l1538
  3461  001406                     i2l1544:
  3462  001406  0604               	decf	i2___ftpack@exp^0,f,c
  3463  001408  90D8               	bcf	status,0,c
  3464  00140A  3601               	rlcf	i2___ftpack@arg^0,f,c
  3465  00140C  3602               	rlcf	(i2___ftpack@arg+1)^0,f,c
  3466  00140E  3603               	rlcf	(i2___ftpack@arg+2)^0,f,c
  3467  001410                     i2l1546:
  3468  001410  BE02               	btfsc	(i2___ftpack@arg+1)^0,7,c
  3469  001412  D003               	goto	i2u53_40
  3470  001414  0E02               	movlw	2
  3471  001416  6004               	cpfslt	i2___ftpack@exp^0,c
  3472  001418  D7F6               	goto	i2l1544
  3473  00141A                     i2u53_40:
  3474  00141A  A004               	btfss	i2___ftpack@exp^0,0,c
  3475  00141C  9E02               	bcf	(i2___ftpack@arg+1)^0,7,c
  3476  00141E  90D8               	bcf	status,0,c
  3477  001420  3204               	rrcf	i2___ftpack@exp^0,f,c
  3478  001422  5004               	movf	i2___ftpack@exp^0,w,c
  3479  001424  1203               	iorwf	(i2___ftpack@arg+2)^0,f,c
  3480  001426  5005               	movf	i2___ftpack@sign^0,w,c
  3481  001428  A4D8               	btfss	status,2,c
  3482  00142A  8E03               	bsf	(i2___ftpack@arg+2)^0,7,c
  3483  00142C  C001  F001         	movff	i2___ftpack@arg,?i2___ftpack
  3484  001430  C002  F002         	movff	i2___ftpack@arg+1,?i2___ftpack+1
  3485  001434  C003  F003         	movff	i2___ftpack@arg+2,?i2___ftpack+2
  3486  001438  0012               	return		;funcret
  3487  00143A                     __end_ofi2___ftpack:
  3488                           	callstack 0
  3489  0000                     
  3490                           	psect	rparam
  3491  0000                     
  3492                           	psect	temp
  3493  00003C                     btemp:
  3494                           	callstack 0
  3495  00003C                     	ds	1
  3496  0000                     int$flags	set	btemp
  3497  0000                     wtemp8	set	btemp+1
  3498  0000                     ttemp5	set	btemp+1
  3499  0000                     ttemp6	set	btemp+4
  3500  0000                     ttemp7	set	btemp+8
  3501                           
  3502                           	psect	idloc
  3503                           
  3504                           ;Config register IDLOC0 @ 0x200000
  3505                           ;	unspecified, using default values
  3506  200000                     	org	2097152
  3507  200000  FF                 	db	255
  3508                           
  3509                           ;Config register IDLOC1 @ 0x200001
  3510                           ;	unspecified, using default values
  3511  200001                     	org	2097153
  3512  200001  FF                 	db	255
  3513                           
  3514                           ;Config register IDLOC2 @ 0x200002
  3515                           ;	unspecified, using default values
  3516  200002                     	org	2097154
  3517  200002  FF                 	db	255
  3518                           
  3519                           ;Config register IDLOC3 @ 0x200003
  3520                           ;	unspecified, using default values
  3521  200003                     	org	2097155
  3522  200003  FF                 	db	255
  3523                           
  3524                           ;Config register IDLOC4 @ 0x200004
  3525                           ;	unspecified, using default values
  3526  200004                     	org	2097156
  3527  200004  FF                 	db	255
  3528                           
  3529                           ;Config register IDLOC5 @ 0x200005
  3530                           ;	unspecified, using default values
  3531  200005                     	org	2097157
  3532  200005  FF                 	db	255
  3533                           
  3534                           ;Config register IDLOC6 @ 0x200006
  3535                           ;	unspecified, using default values
  3536  200006                     	org	2097158
  3537  200006  FF                 	db	255
  3538                           
  3539                           ;Config register IDLOC7 @ 0x200007
  3540                           ;	unspecified, using default values
  3541  200007                     	org	2097159
  3542  200007  FF                 	db	255
  3543                           
  3544                           	psect	config
  3545                           
  3546                           ;Config register CONFIG1L @ 0x300000
  3547                           ;	unspecified, using default values
  3548                           ;	PLL Prescaler Selection bits
  3549                           ;	PLLDIV = 0x0, unprogrammed default
  3550                           ;	System Clock Postscaler Selection bits
  3551                           ;	CPUDIV = 0x0, unprogrammed default
  3552                           ;	USB Clock Selection bit (used in Full-Speed USB mode only; UCFG:FSEN = 1)
  3553                           ;	USBDIV = 0x0, unprogrammed default
  3554  300000                     	org	3145728
  3555  300000  00                 	db	0
  3556                           
  3557                           ;Config register CONFIG1H @ 0x300001
  3558                           ;	Oscillator Selection bits
  3559                           ;	FOSC = INTOSC_EC, Internal oscillator, CLKO function on RA6, EC used by USB (INTCKO)
  3560                           ;	Fail-Safe Clock Monitor Enable bit
  3561                           ;	FCMEN = 0x0, unprogrammed default
  3562                           ;	Internal/External Oscillator Switchover bit
  3563                           ;	IESO = 0x0, unprogrammed default
  3564  300001                     	org	3145729
  3565  300001  09                 	db	9
  3566                           
  3567                           ;Config register CONFIG2L @ 0x300002
  3568                           ;	unspecified, using default values
  3569                           ;	Power-up Timer Enable bit
  3570                           ;	PWRT = 0x1, unprogrammed default
  3571                           ;	Brown-out Reset Enable bits
  3572                           ;	BOR = 0x3, unprogrammed default
  3573                           ;	Brown-out Reset Voltage bits
  3574                           ;	BORV = 0x3, unprogrammed default
  3575                           ;	USB Voltage Regulator Enable bit
  3576                           ;	VREGEN = 0x0, unprogrammed default
  3577  300002                     	org	3145730
  3578  300002  1F                 	db	31
  3579                           
  3580                           ;Config register CONFIG2H @ 0x300003
  3581                           ;	Watchdog Timer Enable bit
  3582                           ;	WDT = OFF, WDT disabled (control is placed on the SWDTEN bit)
  3583                           ;	Watchdog Timer Postscale Select bits
  3584                           ;	WDTPS = 0xF, unprogrammed default
  3585  300003                     	org	3145731
  3586  300003  1E                 	db	30
  3587                           
  3588                           ; Padding undefined space
  3589  300004                     	org	3145732
  3590  300004  FF                 	db	255
  3591                           
  3592                           ;Config register CONFIG3H @ 0x300005
  3593                           ;	unspecified, using default values
  3594                           ;	CCP2 MUX bit
  3595                           ;	CCP2MX = 0x1, unprogrammed default
  3596                           ;	PORTB A/D Enable bit
  3597                           ;	PBADEN = 0x1, unprogrammed default
  3598                           ;	Low-Power Timer 1 Oscillator Enable bit
  3599                           ;	LPT1OSC = 0x0, unprogrammed default
  3600                           ;	MCLR Pin Enable bit
  3601                           ;	MCLRE = 0x1, unprogrammed default
  3602  300005                     	org	3145733
  3603  300005  83                 	db	131
  3604                           
  3605                           ;Config register CONFIG4L @ 0x300006
  3606                           ;	Stack Full/Underflow Reset Enable bit
  3607                           ;	STVREN = 0x1, unprogrammed default
  3608                           ;	Single-Supply ICSP Enable bit
  3609                           ;	LVP = OFF, Single-Supply ICSP disabled
  3610                           ;	Dedicated In-Circuit Debug/Programming Port (ICPORT) Enable bit
  3611                           ;	ICPRT = 0x0, unprogrammed default
  3612                           ;	Extended Instruction Set Enable bit
  3613                           ;	XINST = 0x0, unprogrammed default
  3614                           ;	Background Debugger Enable bit
  3615                           ;	DEBUG = 0x1, unprogrammed default
  3616  300006                     	org	3145734
  3617  300006  81                 	db	129
  3618                           
  3619                           ; Padding undefined space
  3620  300007                     	org	3145735
  3621  300007  FF                 	db	255
  3622                           
  3623                           ;Config register CONFIG5L @ 0x300008
  3624                           ;	unspecified, using default values
  3625                           ;	Code Protection bit
  3626                           ;	CP0 = 0x1, unprogrammed default
  3627                           ;	Code Protection bit
  3628                           ;	CP1 = 0x1, unprogrammed default
  3629                           ;	Code Protection bit
  3630                           ;	CP2 = 0x1, unprogrammed default
  3631                           ;	Code Protection bit
  3632                           ;	CP3 = 0x1, unprogrammed default
  3633  300008                     	org	3145736
  3634  300008  0F                 	db	15
  3635                           
  3636                           ;Config register CONFIG5H @ 0x300009
  3637                           ;	unspecified, using default values
  3638                           ;	Boot Block Code Protection bit
  3639                           ;	CPB = 0x1, unprogrammed default
  3640                           ;	Data EEPROM Code Protection bit
  3641                           ;	CPD = 0x1, unprogrammed default
  3642  300009                     	org	3145737
  3643  300009  C0                 	db	192
  3644                           
  3645                           ;Config register CONFIG6L @ 0x30000A
  3646                           ;	unspecified, using default values
  3647                           ;	Write Protection bit
  3648                           ;	WRT0 = 0x1, unprogrammed default
  3649                           ;	Write Protection bit
  3650                           ;	WRT1 = 0x1, unprogrammed default
  3651                           ;	Write Protection bit
  3652                           ;	WRT2 = 0x1, unprogrammed default
  3653                           ;	Write Protection bit
  3654                           ;	WRT3 = 0x1, unprogrammed default
  3655  30000A                     	org	3145738
  3656  30000A  0F                 	db	15
  3657                           
  3658                           ;Config register CONFIG6H @ 0x30000B
  3659                           ;	unspecified, using default values
  3660                           ;	Configuration Register Write Protection bit
  3661                           ;	WRTC = 0x1, unprogrammed default
  3662                           ;	Boot Block Write Protection bit
  3663                           ;	WRTB = 0x1, unprogrammed default
  3664                           ;	Data EEPROM Write Protection bit
  3665                           ;	WRTD = 0x1, unprogrammed default
  3666  30000B                     	org	3145739
  3667  30000B  E0                 	db	224
  3668                           
  3669                           ;Config register CONFIG7L @ 0x30000C
  3670                           ;	unspecified, using default values
  3671                           ;	Table Read Protection bit
  3672                           ;	EBTR0 = 0x1, unprogrammed default
  3673                           ;	Table Read Protection bit
  3674                           ;	EBTR1 = 0x1, unprogrammed default
  3675                           ;	Table Read Protection bit
  3676                           ;	EBTR2 = 0x1, unprogrammed default
  3677                           ;	Table Read Protection bit
  3678                           ;	EBTR3 = 0x1, unprogrammed default
  3679  30000C                     	org	3145740
  3680  30000C  0F                 	db	15
  3681                           
  3682                           ;Config register CONFIG7H @ 0x30000D
  3683                           ;	unspecified, using default values
  3684                           ;	Boot Block Table Read Protection bit
  3685                           ;	EBTRB = 0x1, unprogrammed default
  3686  30000D                     	org	3145741
  3687  30000D  40                 	db	64
  3688                           tosu	equ	0xFFF
  3689                           tosh	equ	0xFFE
  3690                           tosl	equ	0xFFD
  3691                           stkptr	equ	0xFFC
  3692                           pclatu	equ	0xFFB
  3693                           pclath	equ	0xFFA
  3694                           pcl	equ	0xFF9
  3695                           tblptru	equ	0xFF8
  3696                           tblptrh	equ	0xFF7
  3697                           tblptrl	equ	0xFF6
  3698                           tablat	equ	0xFF5
  3699                           prodh	equ	0xFF4
  3700                           prodl	equ	0xFF3
  3701                           indf0	equ	0xFEF
  3702                           postinc0	equ	0xFEE
  3703                           postdec0	equ	0xFED
  3704                           preinc0	equ	0xFEC
  3705                           plusw0	equ	0xFEB
  3706                           fsr0h	equ	0xFEA
  3707                           fsr0l	equ	0xFE9
  3708                           wreg	equ	0xFE8
  3709                           indf1	equ	0xFE7
  3710                           postinc1	equ	0xFE6
  3711                           postdec1	equ	0xFE5
  3712                           preinc1	equ	0xFE4
  3713                           plusw1	equ	0xFE3
  3714                           fsr1h	equ	0xFE2
  3715                           fsr1l	equ	0xFE1
  3716                           bsr	equ	0xFE0
  3717                           indf2	equ	0xFDF
  3718                           postinc2	equ	0xFDE
  3719                           postdec2	equ	0xFDD
  3720                           preinc2	equ	0xFDC
  3721                           plusw2	equ	0xFDB
  3722                           fsr2h	equ	0xFDA
  3723                           fsr2l	equ	0xFD9
  3724                           status	equ	0xFD8

Data Sizes:
    Strings     0
    Constant    0
    Data        1
    BSS         8
    Persistent  7
    Stack       0

Auto Spaces:
    Space          Size  Autos    Used
    COMRAM           94     43      59
    BANK0           160     15      15
    BANK1           256      0       0
    BANK2           256      0       0
    BANK3           256      0       0
    BANK4           256      0       0
    BANK5           256      0       0
    BANK6           256      0       0
    BANK7           256      0       0

Pointer List with Targets:

    None.

Critical Paths under _main in COMRAM

    None.

Critical Paths under _ISR in COMRAM

    _ISR->_LecturaEntrada
    _LecturaEntrada->___fttol
    ___lbtoft->i2___ftpack
    ___fttol->___ftmul
    ___ftmul->___lbtoft

Critical Paths under _main in BANK0

    _main->___lwtoft
    ___wmul->_Conversion
    ___lwtoft->___wmul

Critical Paths under _ISR in BANK0

    None.

Critical Paths under _main in BANK1

    None.

Critical Paths under _ISR in BANK1

    None.

Critical Paths under _main in BANK2

    None.

Critical Paths under _ISR in BANK2

    None.

Critical Paths under _main in BANK3

    None.

Critical Paths under _ISR in BANK3

    None.

Critical Paths under _main in BANK4

    None.

Critical Paths under _ISR in BANK4

    None.

Critical Paths under _main in BANK5

    None.

Critical Paths under _ISR in BANK5

    None.

Critical Paths under _main in BANK6

    None.

Critical Paths under _ISR in BANK6

    None.

Critical Paths under _main in BANK7

    None.

Critical Paths under _ISR in BANK7

    None.

Call Graph Tables:

 ---------------------------------------------------------------------------------
 (Depth) Function   	        Calls       Base Space   Used Autos Params    Refs
 ---------------------------------------------------------------------------------
 (0) _main                                                 2     2      0    4957
                                             13 BANK0      2     2      0
                         _Conversion
                         _Transmitir
                             ___ftge
                           ___lwtoft
                             ___wmul
 ---------------------------------------------------------------------------------
 (1) ___wmul                                               6     2      4     732
                                              4 BANK0      6     2      4
                         _Conversion (ARG)
 ---------------------------------------------------------------------------------
 (1) ___lwtoft                                             3     0      3    3254
                                             10 BANK0      3     0      3
                         _Conversion (ARG)
                           ___ftpack
                             ___wmul (ARG)
 ---------------------------------------------------------------------------------
 (2) ___ftpack                                             8     3      5    3043
                                              0 BANK0      8     3      5
 ---------------------------------------------------------------------------------
 (1) ___ftge                                               9     3      6     918
                                              0 BANK0      9     3      6
 ---------------------------------------------------------------------------------
 (1) _Transmitir                                           1     1      0      22
                                              0 BANK0      1     1      0
 ---------------------------------------------------------------------------------
 (1) _Conversion                                           4     2      2      31
                                              0 BANK0      4     2      2
 ---------------------------------------------------------------------------------
 Estimated maximum stack depth 2
 ---------------------------------------------------------------------------------
 (Depth) Function   	        Calls       Base Space   Used Autos Params    Refs
 ---------------------------------------------------------------------------------
 (3) _ISR                                                  0     0      0   15022
                     _LecturaEntrada
                            _Recibir
 ---------------------------------------------------------------------------------
 (4) _Recibir                                              0     0      0       0
 ---------------------------------------------------------------------------------
 (4) _LecturaEntrada                                       1     1      0   15022
                                             42 COMRAM     1     1      0
                            ___ftmul
                            ___fttol
                           ___lbtoft
 ---------------------------------------------------------------------------------
 (5) ___lbtoft                                             4     1      3     409
                                              8 COMRAM     4     1      3
                         i2___ftpack
 ---------------------------------------------------------------------------------
 (5) ___fttol                                             15    11      4    4786
                                             27 COMRAM    15    11      4
                            ___ftmul (ARG)
                           ___lbtoft (ARG)
 ---------------------------------------------------------------------------------
 (5) ___ftmul                                             15     9      6    9783
                                             12 COMRAM    15     9      6
                           ___lbtoft (ARG)
                         i2___ftpack
 ---------------------------------------------------------------------------------
 (6) i2___ftpack                                           8     3      5     387
                                              0 COMRAM     8     3      5
 ---------------------------------------------------------------------------------
 Estimated maximum stack depth 6
 ---------------------------------------------------------------------------------

 Call Graph Graphs:

 _main (ROOT)
   _Conversion
   _Transmitir
   ___ftge
   ___lwtoft
     _Conversion (ARG)
     ___ftpack (ARG)
     ___wmul (ARG)
       _Conversion (ARG)
   ___wmul

 _ISR (ROOT)
   _LecturaEntrada
     ___ftmul
       ___lbtoft (ARG)
         i2___ftpack
       i2___ftpack (ARG)
     ___fttol
       ___ftmul (ARG)
       ___lbtoft (ARG)
     ___lbtoft
   _Recibir

 Address spaces:
Name               Size   Autos  Total    Cost      Usage
BIGRAM             7FF      0       0      21        0.0%
EEDATA             100      0       0       0        0.0%
BITBANK7           100      0       0      18        0.0%
BANK7              100      0       0      19        0.0%
BITBANK6           100      0       0      16        0.0%
BANK6              100      0       0      17        0.0%
BITBANK5           100      0       0      14        0.0%
BANK5              100      0       0      15        0.0%
BITBANK4           100      0       0      12        0.0%
BANK4              100      0       0      13        0.0%
BITBANK3           100      0       0      10        0.0%
BANK3              100      0       0      11        0.0%
BITBANK2           100      0       0       8        0.0%
BANK2              100      0       0       9        0.0%
BITBANK1           100      0       0       6        0.0%
BANK1              100      0       0       7        0.0%
BITBANK0            A0      0       0       4        0.0%
BANK0               A0      F       F       5        9.4%
BITCOMRAM           5E      0       0       0        0.0%
COMRAM              5E     2B      3B       1       62.8%
BITSFR               0      0       0     200        0.0%
SFR                  0      0       0     200        0.0%
STACK                0      0       0       2        0.0%
NULL                 0      0       0       0        0.0%
ABS                  0      0      4A      20        0.0%
DATA                 0      0      4A       3        0.0%
CODE                 0      0       0       0        0.0%


Microchip Technology PIC18 Macro Assembler V2.32 build 20210201212658 
Symbol Table                                                                                   Sun Feb 06 07:27:29 2022

      Transmitir@BufferT 0060                       _GO 007E11      ___wmul@multiplicand 0066  
             i2___ftpack 138C                      l236 14F6                      _GIE 007F97  
                    _PR2 000FCB                      _ISR 0008                      u940 12EE  
                    u980 136C                      wreg 000FE8                     ?_ISR 0001  
                   l2002 133A                     l2004 1358                     l2100 10E8  
                   l2006 1362                     l2040 145C                     l2104 1110  
                   l2026 159E                     l2050 14AA                     l2044 147E  
                   l2084 0FD8                     l2096 10C0                     l1994 12FC  
                   l1996 1306                     l1998 1324           _LecturaEntrada 0012  
                   u1127 1068                     u1065 0FF8                     u1075 103A  
                   _LATB 000F8A                     _LATD 000F8C                     _PEIE 007F96  
                   _RBIF 007F90                     _RCIE 007CED                     _RCIF 007CF5  
                   _TMR0 000FD6                     _TMR2 000FCC                     _TRMT 007D61  
                   _Caso 0032                     _Van0 0037                     _Van1 0034  
                   _Van2 002F                     _Duty 002C                     _main 0F66  
           ___ftpack@arg 0060             ___ftpack@exp 0063                     btemp 003C  
                   prodh 000FF4                     prodl 000FF3                     start 000E  
           ___ftmul@cntr 001A             ___param_bank 000000             ___ftmul@sign 001B  
                  ??_ISR 002C          __end_of_Recibir 15B0             ___fttol@exp1 002A  
           ___fttol@lval 0026                    ?_main 0001                    _ADRES 000FC3  
        __end_of___ftmul 120C                    _T0CON 000FD5          __end_of___fttol 12DE  
                  _T2CON 000FCA                    _IRCF0 007E9C                    _IRCF1 007E9D  
                  i2l221 152A                    _RCREG 000FAE                    _RCSTA 000FAB  
                  _SPBRG 000FAF                    u70_41 121C                    u64_41 1128  
                  _TRISB 000F93                    _TRISD 000F95                    u66_41 1150  
                  _TXREG 000FAD                    _TXSTA 000FAC   __end_of_LecturaEntrada 0F66  
          ___ftpack@sign 0064                    tablat 000FF5               _Conversion 14DA  
                  ttemp5 003D                    ttemp6 0040                    ttemp7 0044  
                  status 000FD8                    wtemp8 003D          __initialization 14AE  
           __end_of_main 1118              ?i2___ftpack 0001                   ??_main 006D  
          ___fttol@sign1 0025            __activetblptr 000002          ?_LecturaEntrada 0001  
                 _ADCON0 000FC2                   _ADCON1 000FC1                   _ADCON2 000FC0  
                 _CCPR1L 000FBE                   _CCPR2L 000FBB         __end_of___ftpack 138C  
       __end_of___lbtoft 159C                   i2l1610 1168                   i2l1604 1140  
                 i2l1542 13E8                   i2l1534 13AA                   i2l1710 00AA  
                 i2l1544 1406                   i2l1536 13B4                   i2l1624 119A  
                 i2l1800 0810                   i2l1704 0028                   i2l1546 1410  
                 i2l1538 13D2                   i2l1634 11C2                   i2l1722 01AA  
                 i2l1628 11AA                   i2l1652 1238                   i2l1812 090C  
                 i2l1740 0324                   i2l1716 012C                   i2l1638 11D2  
                 i2l1670 128C                   i2l1830 0A86                   i2l1806 088E  
                 i2l1734 02A6                   i2l1680 12A4                   i2l1824 0A08  
                 i2l1752 0420                   i2l1728 0228                   i2l1682 12B0  
                 i2l1674 129C                   i2l1842 0B82                   i2l1818 098A  
                 i2l1770 059A                   i2l1746 03A2                   i2l1860 0CFC  
                 i2l1836 0B04                   i2l1764 051C                   i2l1854 0C7E  
                 i2l1782 0696                   i2l1758 049E                   i2l1688 12CC  
                 i2l1880 0E44                   i2l1872 0DF8                   i2l1848 0C00  
                 i2l1776 0618                   i2l1866 0D7A                   i2l1794 0792  
                 i2l1788 0714                   i2l1974 1518                   i2l1888 0E90  
       __end_of___lwtoft 1578                   _TMR0IE 007F95                   _TMR0IF 007F92  
                 _TMR2ON 007E52                   _TRISC1 007CA1                   _TRISC2 007CA2  
                 _TRISE0 007CB0                   _TRISE1 007CB1                ??_Recibir 0001  
                 ___ftge 143A                   ___wmul 152E                ??___ftmul 0013  
              ??___fttol 0020                   clear_0 14C6             _DatoRecibido 0033  
                 isa$std 000001    ___ftmul@f3_as_product 0017             __pdataCOMRAM 003B  
                 tblptrh 000FF7                   tblptrl 000FF6                   tblptru 000FF8  
             _Transmitir 159C              ?_Conversion 0060               __accesstop 0060  
__end_of__initialization 14CC      __size_ofi2___ftpack 00AE               ___ftge@ff1 0060  
             ___ftge@ff2 0063            ___rparam_used 000001           i2___ftpack@arg 0001  
         i2___ftpack@exp 0004               ___lbtoft@c 000C               ___ftmul@f1 000D  
             ___ftmul@f2 0010               ___fttol@f1 001C           __pcstackCOMRAM 0001  
  LecturaEntrada@entrada 002B               ___lwtoft@c 006A               __pnvCOMRAM 0034  
                ?___ftge 0060                  ?___wmul 0064                  _CCP1CON 000FBD  
                _CCP2CON 000FBA                  _BAUDCON 000FB8                ?___ftpack 0060  
              ?___lbtoft 0009      __size_of_Conversion 002A                ?___lwtoft 006A  
                i2u53_40 141A                  i2u71_40 1226                  i2u72_40 1256  
                i2u72_45 124E                  i2u49_40 139C                  i2u76_40 12B6  
            ?_Transmitir 0001                  _Recibir 15A8                  __Hparam 0000  
                __Lparam 0000          __size_of___ftge 0074          __size_of___wmul 0026  
                ___ftmul 1118                  ___fttol 120C                  __pcinit 14AE  
           ??i2___ftpack 0006               ??___ftpack 0065               ??___lbtoft 000C  
                __ramtop 0800                  __ptext0 0F66                  __ptext1 152E  
                __ptext2 1554                  __ptext3 12DE                  __ptext4 143A  
                __ptext5 159C                  __ptext6 14DA                  __ptext8 15A8  
                __ptext9 0012               ??___lwtoft 006D         ??_LecturaEntrada 002B  
           __size_of_ISR 1526           __pintcode_body 1504     end_of_initialization 14CC  
        Conversion@canal 0063            __Lmediumconst 0000                  int_func 1504  
     __end_ofi2___ftpack 143A                  postinc0 000FEE      __size_of_Transmitir 000C  
           ??_Conversion 0062          i2___ftpack@sign 0005              ___ftmul@exp 0016  
         __end_of___ftge 14AE           __end_of___wmul 1554            __pidataCOMRAM 15B0  
     __end_of_Conversion 1504      start_initialization 14AE              __end_of_ISR 152E  
               ??___ftge 0066                 ??___wmul 0068        __size_of___ftpack 00AE  
      __size_of___lbtoft 0024              __pbssCOMRAM 002C        __size_of___lwtoft 0024  
          __pcstackBANK0 0060             ??_Transmitir 0060                 ?_Recibir 0001  
              __pintcode 0008                 ?___ftmul 000D                 ?___fttol 001C  
     __end_of_Transmitir 15A8           ___wmul@product 0068        ___wmul@multiplier 0064  
               __Hrparam 0000         __size_of_Recibir 0008                 __Lrparam 0000  
       __size_of___ftmul 00F4         __size_of___fttol 00D2                 ___ftpack 12DE  
               ___lbtoft 1578                 ___lwtoft 1554                 _activado 003A  
               __ptext10 1578                 __ptext11 120C                 __ptext12 1118  
               __ptext13 138C  __size_of_LecturaEntrada 0F54            __size_of_main 01B2  
               _interfaz 003B                 isa$xinst 000000                 int$flags 003C  
               intlevel2 0000  
